(lp0
(dp1
S'url'
p2
S'http://travel.gmw.cn/2017-09/04/content_25994713.htm'
p3
sS'time'
p4
V2017-09-04 09:55
p5
sS'content_text'
p6
(lp7
V\u5317\u4eac\u9752\u5e74\u62a5\u8bb0\u8005\u4ece\u5e02\u4ea4\u901a\u59d4\u83b7\u6089\uff0c\u7ee7\u5730\u94c1\u673a\u573a\u7ebf\u8bd5\u70b9\u624b\u673a\u8d2d\u7968\u540e\uff0c\u6628\u592920\u5ea7\u5927\u5ba2\u6d41\u5730\u94c1\u7ad9\u4e5f\u53ef\u4ee5\u624b\u673a\u8d2d\u4e70\u5355\u7a0b\u7968\u4e86\u3002\u6b64\u5916\uff0c\u4eca\u660e\u4e24\u5e74\u5317\u4eac\u5730\u94c1\u8fd8\u5c06\u5b9e\u73b0\u624b\u673a\u626b\u7801\u8fdb\u51fa\u7ad9\uff0c\u9884\u8ba1\u52302018\u5e74\u4e00\u5b63\u5ea6\uff0c\u5317\u4eac\u5e02\u5730\u94c1\u5168\u7f51\u6240\u6709\u7ebf\u8def\u548c\u8f66\u7ad9\u5c06\u5b9e\u73b0\u5237\u624b\u673a\u4e8c\u7ef4\u7801\u8fdb\u51fa\u7ad9\u3002
p8
aV\u5317\u9752\u62a5\u8bb0\u8005\u4ece\u5e02\u4ea4\u901a\u59d4\u83b7\u6089\uff0c9\u67081\u65e5\u8d77\u65b0\u589e20\u4e2a\u5927\u5ba2\u6d41\u8f66\u7ad9\uff0c\u5b9e\u73b0\u7f51\u4e0a\u8d2d\u7968\u3001\u672c\u7ad9\u5feb\u901f\u53d6\u7968\u3002\u5206\u522b\u662f\uff1a\u4e94\u68f5\u677e\u3001\u897f\u5355\u3001\u5929\u5b89\u95e8\u4e1c\u3001\u5929\u5b89\u95e8\u897f\u3001\u738b\u5e9c\u4e95\u3001\u5927\u671b\u8def\u3001\u524d\u95e8\u3001\u897f\u76f4\u95e8\u3001\u79ef\u6c34\u6f6d\u3001\u4e1c\u76f4\u95e8\u3001\u5d07\u6587\u95e8\u3001\u5317\u4eac\u7ad9\uff0c\u52a8\u7269\u56ed\u3001\u5317\u4eac\u5357\u7ad9\uff0c\u5357\u9523\u9f13\u5df7\u3001\u5965\u4f53\u4e2d\u5fc3\u3001\u5965\u6797\u5339\u514b\u516c\u56ed\u3001\u5317\u4eac\u897f\u7ad9\u3001\u56fd\u8d38\u3001\u5341\u91cc\u6cb3\u3002\u5176\u4e2d\u65e2\u6709\u4e0e\u94c1\u8def\u8fde\u901a\u53e3\u5cb8\u7ad9\uff0c\u4e5f\u6709\u70ed\u95e8\u65c5\u6e38\u666f\u70b9\u7ad9\uff0c\u4ee5\u53ca\u91cd\u8981\u67a2\u7ebd\u8f66\u7ad9\u3002
p9
aV\u636e\u4ecb\u7ecd\uff0c8\u670820\u65e5\uff0c\u5317\u4eac\u5e02\u8f68\u9053\u4ea4\u901a\u5355\u7a0b\u7968\u4e92\u8054\u7f51\u7968\u52a1\u670d\u52a1\u5e73\u53f0\uff08\u6613\u901a\u884cAPP\uff09\u6b63\u5f0f\u4e0a\u7ebf\uff0c\u9996\u5148\u5728\u673a\u573a\u7ebf\u8bd5\u70b9\u8fd0\u884c\u3002\u968f\u774020\u4e2a\u5927\u5ba2\u6d41\u7ad9\u7684\u52a0\u5165\uff0c\u5317\u4eac\u8f68\u9053\u4ea4\u901a\u5171\u670924\u5ea7\u8f66\u7ad9\u53ef\u4ee5\u5b9e\u73b0\u7ebf\u4e0a\u8d2d\u7968\u3001\u7ebf\u4e0b\u53d6\u7968\u3002
p10
aV\u6628\u5929\uff0c\u5317\u9752\u62a5\u8bb0\u8005\u5728\u4e94\u68f5\u677e\u5730\u94c1\u7ad9\u770b\u5230\uff0c\u9646\u7eed\u6709\u4e58\u5ba2\u5411\u5730\u63a8\u4eba\u5458\u54a8\u8be2\u8d2d\u7968\u4e8b\u5b9c\uff0c\u5e76\u901a\u8fc7\u624b\u673a\u8d2d\u4e70\u8f66\u7968\u3002
p11
aV\u636e\u4ecb\u7ecd\uff0c\u4e0a\u7ebf\u4ee5\u6765\uff0c10\u5929\u5185\u6613\u901a\u884cAPP\u4e0b\u8f7d\u91cf\u8d85\u8fc78\u4e07\u4eba\uff1b\u7d2f\u8ba1\u5b8c\u6210\u7ebf\u4e0a\u8d2d\u7968\u672c\u7ad9\u53d6\u7968\u8fd14000\u5f20\uff0c\u5360\u673a\u573a\u7ebf\u5355\u7a0b\u7968\u4e58\u5ba2\u76842%\u3002
p12
aV\u6b64\u5916\uff0c\u5317\u4eac\u897f\u7ad9\u3001\u5317\u4eac\u5357\u7ad9\u548c\u5317\u4eac\u7ad9\u662f\u4f7f\u7528\u5355\u7a0b\u7968\u4e58\u5ba2\u6700\u591a\u7684\u4e09\u4e2a\u5730\u94c1\u7ad9\uff0c\u4e5f\u662f\u8fd9\u6b21\u5728\u5168\u7f51\u63a8\u5e7f\u7ebf\u4e0a\u8d2d\u7968\u3001\u8f66\u7ad9\u5feb\u901f\u53d6\u7968\u7684\u91cd\u70b9\u5730\u94c1\u7ad9\u3002
p13
aV\u4eca\u660e\u4e24\u5e74\u5b9e\u73b0\u624b\u673a\u626b\u7801\u8fdb\u51fa\u7ad9
p14
aV\u9664\u4e86\u624b\u673a\u8d2d\u4e70\u8f66\u7968\uff0c\u5317\u4eac\u5730\u94c1\u4eca\u660e\u4e24\u5e74\u8fd8\u5c06\u5b9e\u73b0\u624b\u673a\u626b\u7801\u8fdb\u51fa\u7ad9\u30029\u670820\u65e5\uff0c\u673a\u573a\u7ebf\u5b9e\u73b0\u5237\u4e8c\u7ef4\u7801\u8fdb\u51fa\u7ad9\u3002\u9884\u8ba1\u52302018\u5e74\u4e00\u5b63\u5ea6\uff0c\u5b9e\u73b0\u5317\u4eac\u5e02\u5730\u94c1\u5168\u7f51\u6240\u6709\u7ebf\u8def\u548c\u8f66\u7ad9\u5237\u624b\u673a\u4e8c\u7ef4\u7801\u8fdb\u51fa\u7ad9\u3002
p15
aV\u9664\u4e86\u901a\u8fc7\u6613\u901a\u884cAPP\uff0c\u4e58\u5ba2\u4e5f\u53ef\u4ee5\u901a\u8fc7\u5177\u6709NFC\u529f\u80fd\u7684\u667a\u80fd\u624b\u673a\u529e\u7406\u624b\u673a\u4e00\u5361\u901a\u5b9e\u73b0\u5237\u624b\u673a\u4e58\u8f66\u3002
p16
aV\u5e02\u4ea4\u901a\u59d4\u76f8\u5173\u8d1f\u8d23\u4eba\u4ecb\u7ecd\uff0c\u6613\u901a\u884cAPP\u548c\u624b\u673a\u4e00\u5361\u901a\u90fd\u662f\u5317\u4eac\u8f68\u9053\u4ea4\u901a\u7684\u653f\u5e9c\u4e3b\u7ba1\u90e8\u95e8\u4ee5\u53ca\u76f8\u5173\u4f01\u4e1a\u5f00\u53d1\u7684\u3002\u4e24\u8005\u90fd\u662f\u5728\u8f68\u9053\u4ea4\u901a\u7cfb\u7edf\u4e2d\u5e94\u7528\u7684\u79fb\u52a8\u652f\u4ed8\u65b9\u5f0f\uff0c\u90fd\u4e3a\u4e58\u5ba2\u63d0\u4f9b\u591a\u6837\u7684\u6d88\u8d39\u65b9\u5f0f\u3002
p17
aV\u624b\u673a\u4e00\u5361\u901a\u5b9e\u9645\u662f\u5c06\u4e00\u5361\u901a\u529f\u80fd\u53e0\u52a0\u5728\u624b\u673a\u5f53\u4e2d,\u5b9e\u73b0\u79fb\u52a8\u652f\u4ed8,\u53ef\u5728\u5177\u5907NFC\u529f\u80fd\u624b\u673a\u4e2d\u8fd0\u7528\uff08\u9664\u82f9\u679c\u624b\u673a\uff09\uff1b\u6613\u901a\u884cAPP\u63d0\u4f9b\u7684\u662f\u5728\u7ebf\u4ed8\u8d39\u4e58\u8f66\u670d\u52a1\uff0c\u76ee\u524d\u53ef\u9009\u7528\u7684\u652f\u4ed8\u6e20\u9053\u6709\u4e09\u4e2a\uff0c\u5206\u522b\u662f\u5de5\u5546\u94f6\u884c\u3001\u652f\u4ed8\u5b9d\u3001\u4eac\u4e1c\u652f\u4ed8\uff0c\u53ef\u5728\u56fd\u5185\u51e0\u4e4e\u6240\u6709\u4e3b\u6d41\u667a\u80fd\u624b\u673a\u4e0a\u5e94\u7528\u3002\u8bb0\u8005\u5218\u73dc
p18
asS'title'
p19
V\u5317\u4eac24\u5ea7\u5730\u94c1\u7ad9\u5b9e\u73b0\u624b\u673a\u8d2d\u4e70\u5355\u7a0b\u7968
p20
sa(dp21
g2
S'http://travel.gmw.cn/2014-12/05/content_14074078.htm'
p22
sg4
V2014-12-05 20:10
p23
sg6
(lp24
V\u201c\u65e0\u8a00\u5f0f\u201d\u7684\u5730\u94c1\u7968\u8d2d\u4e70\u6a21\u5f0f\u5c06\u572812\u670828\u65e5\u7ec8\u7ed3\uff0c\u4e58\u5ba2\u8d2d\u4e70\u5355\u7a0b\u7968\u65f6\u5fc5\u987b\u56de\u7b54\u201c\u53bb\u54ea\u7ad9\u201d\u7684\u95ee\u9898\uff0c\u56e0\u6b64\u4eba\u5de5\u8d2d\u7968\u65f6\u95f4\u53ef\u80fd\u968f\u4e4b\u589e\u52a0\u81f3\u5c114\u500d\u3002
p25
aV\u538b\u7f29\u8d2d\u7968\u65f6\u95f4\uff0c\u5730\u94c1\u5458\u5de5\u5f00\u59cb\u96c6\u4e2d\u57f9\u8bad\uff0c\u719f\u80cc270\u4f59\u5ea7\u65e2\u6709\u7ebf\u8def\u7684\u5730\u94c1\u7ad9\u540d\u300212\u67084\u65e5\uff0c\u5730\u94c1\u5357\u793c\u58eb\u8def\u7ad9\u66f4\u662f\u6446\u8d77\u64c2\u53f0\uff0c\u7531\u503c\u73ed\u7ad9\u957f\u3001\u81ea\u52a8\u552e\u68c0\u7968\u5c97\u548c\u7968\u52a1\u5458\u7ec4\u6210\u768412\u4e2a\u5c0f\u7ec4\u6bd4\u62fc\u7968\u52a1\u6280\u80fd\u3002
p26
aV\u65b0\u7248\u552e\u7968\u7cfb\u7edf\u4e5f\u9996\u6b21\u4eae\u76f8\uff0c\u8d2d\u4e70\u8f66\u7968\u65f6\u7968\u52a1\u5458\u9700\u8981\u51c6\u786e\u8f93\u5165\u51fa\u53d1\u5730\u548c\u76ee\u7684\u5730\u7ad9\u540d\uff0c\u7cfb\u7edf\u81ea\u52a8\u6309\u7167\u6700\u8fd1\u8def\u7a0b\u8ba1\u7b97\u7968\u4ef7\u3002
p27
aV\u76ee\u524d\uff0c\u5317\u4eac\u5730\u94c1\u5b9e\u884c\u5355\u4e00\u7968\u4ef7\uff0c2\u5143\u94b1\u53ef\u4ee5\u5750\u5168\u7a0b\u3002\u5f88\u591a\u4e58\u5ba2\u8d2d\u7968\u7684\u65f6\u5019\u4e0d\u9700\u8981\u8bf4\u8bdd\uff0c\u4ece\u7a97\u53e3\u9012\u8fdb\u53bb2\u5143\uff0c\u7968\u52a1\u5458\u9012\u56de\u4e00\u5f20\u5355\u7a0b\u7968\u3002\u4ece12\u670828\u65e5\u5f00\u59cb\uff0c\u4e58\u5750\u91cc\u7a0b\u4e0e\u7968\u4ef7\u6302\u94a9\uff0c\u6bcf\u4e00\u6b21\u8d2d\u7968\uff0c\u7968\u52a1\u5458\u90fd\u9700\u8981\u786e\u8ba4\u4e58\u5ba2\u7684\u76ee\u7684\u5730\u4ee5\u53ca\u8d2d\u4e70\u51e0\u5f20\u7968\u3002\u56e0\u6b64\uff0c\u80cc\u7ad9\u540d\u6210\u4e3a\u4ed6\u4eec\u7684\u57fa\u672c\u4e1a\u52a1\u6280\u80fd\u3002
p28
aV\u5317\u4eac\u5730\u94c1\u76f8\u5173\u8d1f\u8d23\u4eba\u4ecb\u7ecd\uff0c\u65e2\u6709\u8fd0\u8425\u7684\u5730\u94c1\u7ad9\u6709270\u591a\u5ea7\u8f66\u7ad9\u3002\u4e58\u5ba2\u6709\u65f6\u5019\u8bf4\u4e0d\u6e05\u7ad9\u540d\uff0c\u53ea\u80fd\u63d0\u4f9b\u4e00\u4e9b\u9644\u8fd1\u6807\u5fd7\u6027\u5efa\u7b51\u3002\u6b64\u65f6\uff0c\u7968\u52a1\u5458\u9700\u8981\u901a\u8fc7\u5730\u7406\u4f4d\u7f6e\u7b49\u4fe1\u606f\uff0c\u5feb\u901f\u5224\u65ad\u76ee\u7684\u5730\u8f66\u7ad9\uff0c\u76f8\u5f53\u4e8e\u201c\u542c\u4f4d\u8fa8\u7ad9\u201d\u3002
p29
aV\u201c\u65b0\u552e\u7968\u7cfb\u7edf\u4e0d\u652f\u6301\u5730\u6807\u67e5\u8be2\uff0c\u6240\u4ee5\u7ad9\u52a1\u5458\u5fc5\u987b\u5148\u5224\u5b9a\u76ee\u7684\u5730\u9644\u8fd1\u7684\u8f66\u7ad9\uff0c\u4e4b\u540e\u7528\u952e\u76d8\u8f93\u5165\u3002\u201d\u590d\u5174\u95e8\u7ad9\u533a\u957f\u6731\u5fd7\u82f1\u8bf4\uff0c\u201c\u6709\u4e9b\u7ad9\u540d\u5bb9\u6613\u6df7\uff0c\u6bd4\u5982\u4e58\u5ba2\u8981\u53bb\u5317\u82d1\uff0c\u7968\u52a1\u5458\u9700\u8981\u786e\u8ba4\u662f\u901a\u5dde\u5317\u82d1\u7ad9\u8fd8\u662f5\u53f7\u7ebf\u7684\u5317\u82d1\u8def\u5317\u7ad9\u3002\u5357\u793c\u58eb\u8def\u7ad9\u7279\u522b\u8bbe\u7f6e\u4e86\u4e24\u53f0\u552e\u7968\u6a21\u62df\u673a\uff0c\u65b9\u4fbf\u804c\u5de5\u7ec3\u4e60\u3002\u201d
p30
aV\u9664\u4e86\u5e38\u89c4\u6280\u80fd\u7c7b\u7684\u8003\u6838\uff0c\u8bb0\u8005\u53d1\u73b0\u8003\u9898\u4e2d\u6709\u4e00\u90e8\u5206\u5185\u5bb9\u662f\u672a\u6765\u53ef\u80fd\u51fa\u73b0\u7684\u201c\u7a81\u53d1\u4e8b\u4ef6\u201d\u3002\u6bd4\u5982\u4e00\u9053\u9898\u662f\u201c\u7531\u4e8e\u5730\u94c1\u539f\u56e0\u8fd0\u8425\u4e2d\u65ad15\u5206\u949f\u4ee5\u4e0a\uff0c\u5bfc\u81f4\u4e58\u5ba2\u7ed5\u884c\u3001\u4e34\u65f6\u5c01\u7ad9\u7b49\u7279\u6b8a\u60c5\u51b5\uff0c\u5bf9\u4e8e\u6301\u7968\u5361\u51fa\u7ad9\u65f6\u53d1\u751f\u8d85\u65f6\u3001\u8d85\u7a0b\u60c5\u51b5\uff0c\u4f60\u4f1a\u600e\u4e48\u529e\uff1f\u201d
p31
aV\u5929\u5b89\u95e8\u897f\u7ad9\u7684\u53c2\u8d5b\u9009\u624b\u62a2\u7b54\uff1a\u201c\u4e3a\u6301\u5355\u7a0b\u7968\u5361\u7684\u4e58\u5ba2\u8865\u96f6\u5143\u7968\u5361\uff0c\u505a\u597d\u767b\u8bb0\uff0c\u4e58\u5ba2\u5237\u5361\u51fa\u7ad9\u3002\u201d
p32
aV\u6309\u7167\u65b0\u89c4\uff0c\u5730\u94c1\u7968\u201c\u6709\u6548\u671f\u201d\u4e3a4\u5c0f\u65f6\uff0c\u4e00\u65e6\u8d85\u65f6\u9700\u8981\u6309\u5355\u7a0b\u6700\u4f4e\u7968\u4ef73\u5143\u8865\u4ea4\u8f66\u8d39\u540e\u624d\u53ef\u51fa\u7ad9\u3002\u800c\u56e0\u5730\u94c1\u6545\u969c\u539f\u56e0\u9020\u6210\u7684\u8d85\u65f6\uff0c\u663e\u7136\u53ef\u4ee5\u4e0d\u9075\u4ece\u8fd9\u6761\u3002\u4e00\u4f4d\u7ad9\u533a\u957f\u8865\u5145\uff1a\u201c\u5982\u679c\u662f\u4f7f\u7528\u4e00\u5361\u901a\u7684\u4e58\u5ba2\u9047\u5230\u7c7b\u4f3c\u60c5\u51b5\uff0c\u7ecf\u8fc7\u7cfb\u7edf\u64cd\u4f5c\u4e0d\u4f1a\u591a\u6263\u7968\u6b3e\uff0c\u4f46\u662f\u8981\u5b8c\u6210\u5237\u5361\u624d\u80fd\u51fa\u7ad9\uff0c\u8fd9\u6837\u53ef\u4ee5\u4fdd\u8bc1\u6570\u636e\u7edf\u8ba1\u7684\u5b8c\u6574\u3002\u201d
p33
aV\u81f3\u4e8e\u6709\u4e58\u5ba2\u5982\u679c\u8d2d\u4e70\u4e86\u56fa\u5b9a\u7ad9\u95f4\u7684\u5355\u7a0b\u7968\u5361\uff0c\u5374\u56e0\u5750\u8fc7\u7ad9\u6216\u53d8\u6362\u884c\u7a0b\u5bfc\u81f4\u8d85\u8fc7\u4e86\u7968\u5361\u5185\u8d2d\u4e70\u7684\u91cc\u7a0b\uff0c\u51fa\u7ad9\u65f6\u4e5f\u9700\u8981\u8865\u4ea4\u5bf9\u5e94\u7684\u7968\u6b3e\u65b9\u53ef\u51fa\u7ad9\u3002
p34
asg19
V\u5730\u94c1\u5c06\u544a\u522b\u201c\u65e0\u8a00\u5f0f\u201d\u8d2d\u7968
p35
sa(dp36
g2
S'http://travel.gmw.cn/2014-12/05/content_14074085.htm'
p37
sg4
V2014-12-05 20:11
p38
sg6
(lp39
V\u5047\u5b9aa\u4ece\u82f9\u679c\u56ed\u53bb\u56db\u60e0\uff0cb\u4ece\u56db\u60e0\u5230\u82f9\u679c\u56ed\uff0c\u4e24\u4eba\u5728\u4e2d\u9014\u6362\u5361\uff0c\u53ef\u75283\u5143\u7684\u8d77\u6b65\u4ef7\u957f\u671f\u4e58\u8f66
p40
aV\u8d2d\u4e70\u8f66\u7968\u9700\u5148\u4ed8\u6b3e\uff0c\u9009\u7ad9\u65f6\u8981\u9009\u62e9\u516d\u516c\u91cc\u4ee5\u5185\u7684\u4e58\u8f66\u533a\u95f4\uff0c\u8fd9\u6837\u624d\u80fd\u4fdd\u8bc13\u5143\u4e58\u8f66
p41
aV\u6cd5\u5236\u665a\u62a5\u8baf(\u8bb0\u8005\u77f3\u7231\u534e\u5468\u8d85)12\u670828\u65e5\u8d77\uff0c\u5317\u4eac\u5730\u94c1\u5c06\u6b63\u5f0f\u5b9e\u65bd\u6309\u91cc\u7a0b\u6536\u8d39\u65b0\u6807\u51c6\uff0c\u8fd9\u8ba9\u6bcf\u5929\u8de8\u533a\u4e0a\u73ed\u7684\u201c\u8dd1\u65e9\u65cf\u201d\u5f88\u201c\u5fc3\u75db\u201d\uff0c\u6700\u8fd1\u5728\u5404\u4e2a\u793e\u4ea4\u7f51\u7ad9\u4e0a\u5f00\u59cb\u6709\u4eba\u521b\u5efa\u201c\u5317\u4eac\u5730\u94c1\u6362\u7968\u7fa4\u201d\u3002
p42
aV\u8bb0\u8005\u641c\u7d22QQ\u7fa4\u53d1\u73b0\uff0c\u6709\u4e94\u516d\u4e2a\u7c7b\u4f3c\u4e8e\u5317\u4eac\u5730\u94c1\u6362\u7968\u7fa4\u7684\u65b0\u7fa4\uff0c\u7fa4\u6210\u5458\u6700\u591a\u7684\u6709\u4e00\u767e\u591a\uff0c\u591a\u6570\u6210\u5458\u90fd\u628a\u81ea\u5df1\u4e58\u5750\u5730\u94c1\u7684\u59cb\u70b9\u548c\u7ec8\u70b9\u6807\u6ce8\u5728\u6635\u79f0\u91cc\uff0c\u4ee5\u4fbf\u5bfb\u627e\u201c\u5bf9\u8def\u4eba\u201d\u3002\u4e0d\u4ec5\u4ec5\u662f\u5317\u4eac\uff0c\u5e7f\u5dde\u3001\u4e0a\u6d77\u4e5f\u6709\u7c7b\u4f3c\u7684\u6362\u7968\u7fa4\u4f53\u3002
p43
aV\u4f55\u4e3a\u6362\u7968?\u6362\u7968\u7fa4\u7684\u4ecb\u7ecd\u4fe1\u606f\u4e0a\u5982\u662f\u8bf4\uff1a\u5047\u5982\u4f60\u4ecea\u7ad9\u51fa\u53d1\u53bbb\u7ad9\u4e0a\u73ed\uff0c\u90a3\u4e48\u5c31\u627e\u4e00\u4f4d\u4eceb\u53bba\u4e0a\u73ed\u7684\u670b\u53cb\uff0c\u7ea6\u597d\u5728\u540c\u4e00\u7ad9\u4e0b\u8f66\u4e92\u6362\u5730\u94c1\u5361\uff0c\u4e0b\u73ed\u518d\u7528\u540c\u6837\u65b9\u5f0f\u6362\u56de\u6765\u3002\u8fd9\u6837\u5c31\u80fd\u4ee5\u8d77\u6b65\u4ef73\u5143\u7684\u4ef7\u683c\u5750\u5730\u94c1\u4e86\u3002\u4e00\u5e74\u4e0b\u6765\u80fd\u7701\u4e09\u5343\u591a\u5757\u94b1\u3002
p44
aV\u9760\u8c31\u5417?\u3000\u65f6\u95f4\u6210\u672c\u5927\u5927\u589e\u52a0
p45
aV\u6768\u5973\u58eb\u5bb6\u4f4f\u5b8b\u5bb6\u5e84\uff0c\u4e0a\u73ed\u5730\u70b9\u4f4d\u4e8e\u5317\u4eac\u57ce\u5317\uff0c\u5730\u94c1\u8c03\u4ef7\u540e\u53ef\u80fd\u6bcf\u5929\u7684\u4ea4\u901a\u652f\u51fa\u8981\u591a\u51fa8\u5143\u94b1\u3002\u6362\u7968\u7684\u4e8b\u60c5\u6768\u5973\u58eb\u4e5f\u542c\u8bf4\u4e86\uff0c\u5e76\u4e14\u4e5f\u548c\u540c\u4e8b\u8ba8\u8bba\u5f97\u5f88\u70ed\u70c8\u3002\u6768\u5973\u58eb\u548c\u5979\u7684\u5f88\u591a\u670b\u53cb\u8fd8\u662f\u8ba4\u4e3a\u8fd9\u79cd\u6362\u7968\u65b9\u6cd5\u201c\u7406\u8bba\u201d\u4e0a\u9760\u8c31\uff0c\u4f46\u5b9e\u9645\u4e2d\u5b9e\u65bd\u6050\u6015\u4e0d\u662f\u957f\u4e45\u4e4b\u8ba1\u3002
p46
aV\u4e00\u65e6\u4e0e\u67d0\u4eba\u8fbe\u6210\u6362\u7968\u7ea6\u5b9a\uff0c\u6768\u5973\u58eb\u89c9\u5f97\u81ea\u5df1\u7684\u65f6\u95f4\u5c31\u4e0d\u5b8c\u5168\u662f\u81ea\u5df1\u63a7\u5236\u4e86\uff0c\u52a0\u4e0a\u65e9\u665a\u9ad8\u5cf0\u5730\u94c1\u4eba\u591a\uff0c\u4ea4\u6362\u8f66\u7968\u65f6\u80af\u5b9a\u803d\u8bef\u65f6\u95f4\uff0c\u65f6\u95f4\u6210\u672c\u4e5f\u5927\u5927\u589e\u52a0\uff0c\u8bf4\u4e0d\u5b9a\u5fc3\u60c5\u8fd8\u4f1a\u53d7\u5230\u5f71\u54cd\u3002
p47
aV\u5982\u679c\u4ea4\u6362\u516c\u4ea4\u5361\uff0c\u8fd8\u8981\u8003\u8651\u53cc\u65b9\u7684\u5361\u662f\u4e0d\u662f\u8981\u5145\u4e00\u6837\u7684\u94b1\u4ee5\u4fdd\u969c\u516c\u5e73\u3002\u5982\u679c\u6bcf\u5929\u4ea4\u6362\u8f66\u7968\uff0c\u6bcf\u5929\u6392\u961f\u4e70\u7968\u53c8\u803d\u8bef\u4e86\u65f6\u95f4\uff0c\u53cd\u800c\u5f97\u4e0d\u507f\u5931\u3002\u6240\u4ee5\u6768\u5973\u58eb\u548c\u540c\u4e8b\u4eec\u8ba4\u4e3a\u6362\u7968\u7684\u6210\u529f\u7387\u4e0d\u4f1a\u592a\u9ad8\u3002\u201c\u8bf4\u662f\u4e00\u7801\u4e8b\uff0c\u505a\u53c8\u662f\u4e00\u7801\u4e8b\u513f\u3002\u201d\u6768\u5973\u58eb\u8bf4\u3002
p48
aV\u6765\u8ffd\u95ee\u3000\u5bf9\u9003\u7968\u884c\u4e3a\u5c06\u6709\u5e94\u5bf9\u63aa\u65bd
p49
aV\u9488\u5bf9\u4e2d\u9014\u4e24\u4eba\u6362\u5361\u4e00\u4e8b\uff0c\u5317\u4eac\u5730\u94c1\u8868\u793a\uff0c\u6bcf\u6761\u5730\u94c1\u7ebf\u8fd0\u884c\u901f\u5ea6\u4e0d\u4e00\uff0c\u7ea6\u5b9a\u5230\u7ad9\u65f6\u95f4\u89c1\u9762\u4e0d\u4e00\u5b9a\u80fd\u591f\u5b9e\u73b0\uff0c\u53e6\u5916\u6362\u5361\u4e5f\u610f\u5473\u7740\u4f60\u628a\u81ea\u5df1\u7684\u4ea4\u901a\u5361\u4ea4\u7ed9\u5bf9\u65b9\uff0c\u90a3\u5bf9\u65b9\u5f53\u5929\u8981\u662f\u6709\u5176\u4ed6\u51fa\u884c\uff0c\u4e5f\u53ea\u80fd\u7528\u4f60\u7684\u4ea4\u901a\u5361\uff0c\u5e76\u4e0d\u9760\u8c31\u3002
p50
aV\u5317\u4eac\u5730\u94c1\u8868\u793a\uff0c\u5982\u679c\u5b58\u5728\u9003\u7968\u7684\u4e00\u4e9b\u884c\u4e3a\uff0c\u4eca\u540e\u4f1a\u91c7\u53d6\u76f8\u5e94\u7684\u4e00\u4e9b\u63aa\u65bd\u3002
p51
asg19
V\u5317\u4eac\u5730\u94c1\u8c03\u7968\u4ef7\u5e02\u6c11\u7f51\u4e0a\u5efa\u7fa4\u201c\u62fc\u201d\u7968
p52
sa(dp53
g2
S'http://economy.gmw.cn/2017-12/22/content_27164443.htm'
p54
sg4
V2017-12-22 17:15
p55
sg6
(lp56
V\u4eba\u6c11\u7f51\u5317\u4eac12\u670822\u65e5\u7535\u3000\u636e\u5317\u4eac\u5730\u94c1\u5b98\u65b9\u7f51\u7ad9\u6d88\u606f\uff0c2017\u5e7412\u670823\u65e5\u8d77\uff0c\u5317\u4eac\u8f68\u9053\u4ea4\u901a\u5168\u8def\u7f51\u5b9e\u73b0\u7ebf\u4e0a\u8d2d\u7968\u3001\u8f66\u7ad9\u53d6\u7968\u3002\u5373\u4e58\u5ba2\u901a\u8fc7\u5317\u4eac\u8f68\u9053\u4ea4\u901a\u5355\u7a0b\u7968\u4e92\u8054\u7f51\u7968\u52a1\u670d\u52a1\u5e73\u53f0App\u8fdb\u884c\u7ebf\u4e0a\u8d2d\u7968\uff0c\u53ef\u5728\u5168\u8def\u7f51\u5404\u8f66\u7ad9FAM\uff08\u7f51\u7edc\u53d6\u7968\u673a\uff09\u4e0a\u8fdb\u884c\u53d6\u7968\u3001\u8fdb\u7ad9\u4e58\u8f66\u3002
p57
aV\u5317\u4eac\u5730\u94c1\u516c\u53f8\u76f8\u5173\u8d1f\u8d23\u4eba\u4ecb\u7ecd\uff0c\u4e3a\u8fdb\u4e00\u6b65\u63d0\u9ad8\u8f66\u7ad9\u8fd0\u8425\u53ca\u670d\u52a1\u6c34\u5e73\uff0c\u6ee1\u8db3\u4e58\u5ba2\u5bf9\u8f68\u9053\u4ea4\u901a\u5e94\u7528\u79fb\u52a8\u652f\u4ed8\u6280\u672f\u7684\u8feb\u5207\u9700\u6c42\uff0c\u5411\u4e58\u5ba2\u63d0\u4f9b\u66f4\u4e3a\u4fbf\u5229\u7684\u51fa\u884c\u670d\u52a1\uff0c\u8be5\u5e73\u53f0App\u81ea2017\u5e748\u670820\u65e5\u8d77\u5728\u8def\u7f51\u90e8\u5206\u7ebf\u8def\u53ca\u8f66\u7ad9\u5148\u540e\u8bd5\u70b9\u7ebf\u4e0a\u8d2d\u7968\u3001\u8f66\u7ad9\u53d6\u7968\uff0c\u53ca\u5237\u4e8c\u7ef4\u7801\u8fdb\u51fa\u7ad9\u529f\u80fd\uff0c\u5404\u9879\u529f\u80fd\u8fd0\u884c\u7a33\u5b9a\u3002
p58
aV\u636e\u6089\uff0c\u76ee\u524d\u5317\u4eac\u5730\u94c1\u673a\u573a\u7ebf4\u5ea7\u8f66\u7ad9FAM\u673a\u65e5\u5747\u53d6\u7968\u91cf\u4e3a529\u5f20\uff0c\u5360\u673a\u573a\u7ebf\u5355\u7a0b\u7968\u4e58\u5ba2\u76842.84%\uff1b\u65e5\u5747\u5237\u4e8c\u7ef4\u7801\u8fdb\u7ad9\u4e58\u5ba2\u8fbe866\u4eba\uff0c\u5360\u65e5\u5747\u8fdb\u7ad9\u91cf\u76842.46%\u3002\uff1b20\u5ea7\u91cd\u70b9\u8f66\u7ad9\u65e5\u5747FAM\u673a\u53d6\u7968\u91cf\u4e3a7352\u5f20\uff0c\u536020\u5ea7\u91cd\u70b9\u8f66\u7ad9\u5355\u7a0b\u7968\u4e58\u5ba2\u76843.21%\u3002
p59
aV\u201c\u6b64\u6b21\u5168\u8def\u7f51\u5b9e\u73b0\u7ebf\u4e0a\u8d2d\u7968\u3001\u8f66\u7ad9\u53d6\u7968\u5171\u6295\u5165708\u53f0FAM\u673a\uff0c\u6bcf\u5ea7\u8f66\u7ad9\u5e73\u5747\u81f3\u5c11\u5b89\u88c5\u4e24\u53f0FAM\u673a\u3002\u4e58\u5ba2\u901a\u8fc7\u5e73\u53f0App\u8fdb\u884c\u7ebf\u4e0a\u8d2d\u7968\uff0c\u5e76\u5728\u8f66\u7ad9\u7684\u81ea\u52a9\u552e\u7968\u673a\u9644\u8fd1\u627e\u5230FAM\u673a\uff0c\u8fdb\u884c\u626b\u7801\u53d6\u7968\uff0c\u7f29\u77ed\u6392\u961f\u8d2d\u7968\u65f6\u95f4\uff0c\u51cf\u5c11\u4eba\u5458\u805a\u96c6\u60c5\u51b5\uff0c\u6709\u6548\u6539\u5584\u4e58\u5ba2\u51fa\u884c\u4f53\u9a8c\u3002\u201d\u8be5\u8d1f\u8d23\u4eba\u79f0\u3002
p60
aV\u8be5\u8d1f\u8d23\u4eba\u6307\u51fa\uff0c\u4e3a\u8ba9\u66f4\u5e7f\u5927\u7684\u4e58\u5ba2\u4f53\u4f1a\u5230\u79fb\u52a8\u652f\u4ed8\u5e26\u6765\u7684\u4fbf\u6377\u51fa\u884c\uff0c\u63d0\u5347\u4e58\u5ba2\u7684\u83b7\u5f97\u611f\u548c\u5e78\u798f\u611f\uff0c2017\u5e7412\u670823\u65e5\u8d77\uff0c\u8be5\u5e73\u53f0App\u8fdb\u4e00\u6b65\u6269\u5927\u5728\u8def\u7f51\u4e0a\u7684\u5e94\u7528\u8303\u56f4\uff0c\u5168\u8def\u7f5119\u6761\u7ebf\u6240\u6709\u8f66\u7ad9\u5747\u5b9e\u73b0\u7ebf\u4e0a\u8d2d\u7968\u3001\u8f66\u7ad9\u53d6\u7968\uff1b\u4e0b\u4e00\u6b65\uff0c\u8ba1\u5212\u4e8e2018\u5e74\u4e00\u5b63\u5ea6\u5728\u5168\u8def\u7f51\u8303\u56f4\u5b9e\u73b0\u5237\u4e8c\u7ef4\u7801\u8fdb\u51fa\u7ad9\u3002\uff08\u6731\u6c5f\uff09
p61
asg19
V\u5317\u4eac\u5730\u94c1\u8f68\u9053\u4ea4\u901a\u5168\u8def\u7f5123\u65e5\u8d77\u5b9e\u73b0\u7ebf\u4e0a\u8d2d\u7968\u3001\u8f66\u7ad9\u53d6\u7968
p62
sa(dp63
g2
S'http://difang.gmw.cn/roll2/2017-12/08/content_120197638.htm'
p64
sg4
V2017-12-08 09:57
p65
sg6
(lp66
V\u672c\u62a5\u8baf\uff08\u8bb0\u8005\u5f20\u9e23\uff0912\u67087\u65e5\uff0c\u8bb0\u8005\u4ece\u5408\u80a5\u8f68\u9053\u4ea4\u901a\u516c\u53f8\u83b7\u6089\uff0c\u4e3a\u65b9\u4fbf\u4e58\u5ba2\u4e58\u5750\u8f68\u9053\u4ea4\u901a\uff0c\u5408\u80a5\u8f68\u9053\u4ea4\u901a\u63a8\u51fa\u805a\u5408\u4e8c\u7ef4\u7801\u7ebf\u4e0a\u652f\u4ed8\u3002\u4ece12\u67085\u65e5\u8d77\uff0c\u5728\u5408\u80a5\u8f68\u9053\u4ea4\u901a1\u53f7\u7ebf\u5404\u7ad9\u70b9\u5ba2\u670d\u4e2d\u5fc3\u3001\u4e34\u65f6\u552e\u7968\u5c97\u4ead\u5185\u8d2d\u4e70\u8ba1\u6b21\u7968\u3001\u50a8\u503c\u7968\u3001\u7eaa\u5ff5\u7968\uff0c\u6216\u8005\u4e3a\u50a8\u503c\u7968\u5145\u503c\uff0c\u5747\u53ef\u901a\u8fc7\u626b\u7801\u652f\u4ed8\u3002
p67
aV12\u67086\u65e5\uff0c\u8f68\u9053\u4ea4\u901a2\u53f7\u7ebf\u767e\u4e07\u5e02\u6c11\u5927\u578b\u8bd5\u4e58\u4f53\u9a8c\u6d3b\u52a8\u542f\u52a8\u5f53\u5929\uff0c\u805a\u5408\u4e8c\u7ef4\u7801\u652f\u4ed8\u540c\u6b65\u4e0a\u7ebf\u3002\u805a\u5408\u4e8c\u7ef4\u7801\u805a\u5408\u5fae\u4fe1\u3001\u652f\u4ed8\u5b9d\u7b49\u652f\u4ed8\u901a\u9053\uff0c\u5b9e\u73b0\u4e00\u7801\u6536\u6b3e\u3002\u76ee\u524d\uff0c\u8f68\u9053\u4ea4\u901a1\u30012\u53f7\u7ebf\u5404\u7ad9\u70b9\u5ba2\u670d\u4e2d\u5fc3\u3001\u4e34\u65f6\u552e\u7968\u5c97\u4ead\u5171\u8ba167\u4e2a\u670d\u52a1\u70b9\u8bbe\u7f6e\u4e86\u805a\u5408\u4e8c\u7ef4\u7801\u626b\u7801\u8bbe\u5907\uff0c\u51e1\u5728\u4e0a\u8ff067\u4e2a\u670d\u52a1\u70b9\u5185\u529e\u7406\u4e1a\u52a1\u7684\u4e58\u5ba2\uff0c\u4e0d\u9700\u8981\u4f7f\u7528\u73b0\u91d1\uff0c\u626b\u4e00\u626b\u805a\u5408\u4e8c\u7ef4\u7801\u5373\u53ef\u987a\u5229\u652f\u4ed8\u3002
p68
aV\u6b64\u5916\uff0c\u5408\u80a5\u8f68\u9053\u4ea4\u901a\u5df2\u542f\u52a8\u5728\u81ea\u52a9\u8d2d\u7968\u673a\u4e0a\u901a\u8fc7\u626b\u7801\u652f\u4ed8\u8d2d\u4e70\u5355\u7a0b\u7968\u76f8\u5173\u5de5\u4f5c\uff0c\u5f85\u81ea\u52a9\u8d2d\u7968\u673a\u4e8c\u7ef4\u7801\u652f\u4ed8\u4e0a\u7ebf\u540e\uff0c\u4e58\u5ba2\u4e58\u5750\u8f68\u9053\u4ea4\u901a\u4e0d\u9700\u8981\u643a\u5e26\u73b0\u91d1\uff0c\u5e26\u4e0a\u4e00\u90e8\u624b\u673a\u5373\u53ef\u3002
p69
asg19
V\u8d2d\u4e70\u5408\u80a5\u5730\u94c1\u7968\u53ef\u626b\u7801\u652f\u4ed8
p70
sa(dp71
g2
S'http://politics.gmw.cn/2016-10/29/content_22718928.htm'
p72
sg4
V2016-10-29 15:27
p73
sg6
(lp74
V\u4e0a\u6d77\u5730\u94c1\u8bd5\u70b9\u7b2c\u4e09\u65b9\u652f\u4ed8\u8d2d\u7968\u9996\u6279\u7ad9\u70b9\uff1a2\u53f7\u7ebf\u9646\u5bb6\u5634\u7ad9\u300110\u53f7\u7ebf\u5357\u4eac\u4e1c\u8def\u7ad9\u300111\u53f7\u7ebf\u8fea\u58eb\u5c3c\u7ad9
p75
aV\u672c\u62a5\u8baf(\u8bb0\u8005\u6768\u7855)\u8bb0\u8005\u6628\u65e5\u4ece\u4e0a\u6d77\u5730\u94c1\u90e8\u95e8\u83b7\u6089\uff0c10\u670831\u65e5\u8d77\uff0c\u5168\u65b0\u7684\u201c\u4e91\u8d2d\u7968\u201d\u65b9\u5f0f\u5c06\u51fa\u73b0\u5728\u4e0a\u6d77\u5730\u94c1\uff0c\u4e58\u5ba2\u53ea\u9700\u8981\u901a\u8fc7\u624b\u673a\u7b49\u667a\u80fd\u79fb\u52a8\u7ec8\u7aef\uff0c\u4f7f\u7528\u201c\u652f\u4ed8\u5b9d\u201d\u6216\u201c\u4ed8\u8d39\u901a\u201dAPP\u4fbf\u53ef\u5b9e\u73b0\u5728\u7ebf\u652f\u4ed8\u8d2d\u7968\uff0c\u4ece\u5355\u7a0b\u7968\u5230\u4e00\u65e5\u7968\u3001\u4e09\u65e5\u7968\uff0c\u5747\u53ef\u7ebf\u4e0a\u8d2d\u4e70\u3002
p76
aV\u9996\u6279\u8bd5\u70b9\u7684\u73b0\u573a\u53d6\u7968\u8f66\u7ad9\u8bbe\u57282\u53f7\u7ebf\u9646\u5bb6\u5634\u300111\u53f7\u7ebf\u8fea\u58eb\u5c3c\u548c10\u53f7\u7ebf\u5357\u4eac\u4e1c\u8def\u7ad9\u7b49\u4e09\u7ad9\uff0c\u5f53\u573a\u626b\u7801\u53d6\u7968\u6216\u673a\u4e0a\u8d2d\u7968\uff0c\u65b9\u4fbf\u5e02\u6c11\u5c24\u5176\u662f\u5916\u6765\u6e38\u5ba2\u3002
p77
aV\u7b2c\u4e09\u65b9\u652f\u4ed8\u53ef\u8d2d\u4e70\u7684\u5730\u94c1\u7968\u79cd\u4e0d\u4ec5\u5305\u62ec\u8fd9\u4e09\u5ea7\u8f66\u7ad9\u7684\u5355\u7a0b\u7968(\u5355\u7a0b\u7968\u987b\u5f53\u7ad9\u5f53\u5929\u8d2d\u4e70\u4f7f\u7528)\uff0c\u8fd8\u5305\u62ec\u9002\u5408\u5dee\u65c5\u529e\u4e8b\u7b49\u9891\u7e41\u4e58\u5750\u5730\u94c1\u7684\u201c\u4e00\u65e5\u7968\u201d\u548c\u201c\u4e09\u65e5\u7968\u201d\u3002
p78
aV\u76ee\u524d\uff0c\u8fd9\u4e09\u5ea7\u8f66\u7ad9\u7684\u201c\u4e91\u8d2d\u7968\u201d\u673a\u5df2\u5b89\u88c5\u5230\u4f4d\uff0c\u6bcf\u7ad92\u53f0\uff0c\u8bbe\u7f6e\u9192\u76ee\u6807\u8bc6\uff0c\u5e76\u5b89\u6392\u5de5\u4f5c\u4eba\u5458\u73b0\u573a\u6307\u5bfc\u4f7f\u7528\u3002
p79
aV\u4e0a\u6d77\u5730\u94c1\u8868\u793a\uff0c\u5c06\u5728\u8bd5\u70b9\u540e\u5bf9\u8fd9\u4e00\u8d2d\u7968\u65b9\u5f0f\u8fdb\u884c\u8bc4\u4f30\uff0c\u672a\u6765\u9010\u6b65\u63a8\u5e7f\u3002
p80
asg19
V\u4e0a\u6d77\u5730\u94c1\u8bd5\u70b9\u7b2c\u4e09\u65b9\u652f\u4ed8\u8d2d\u7968\u9996\u6279\u8bd5\u70b9\u8f66\u7ad9\u516c\u5e03
p81
sa(dp82
g2
S'http://tech.gmw.cn/2013-12/31/content_9973300_2.htm'
p83
sg4
V2013-12-31 04:05
p84
sg6
(lp85
V\u5982\u4f55\u7740\u773c\u6574\u4f53\u516c\u4ea4\u67b6\u6784\u4f18\u5316\uff1f
p86
aV\u89c2\u70b9\u4e00\uff1a\u5730\u94c1\u7968\u4ef7\u53ef\u4ee5\u201c\u6709\u6da8\u6709\u964d\u201d\uff0c\u5728\u9ad8\u5cf0\u65f6\u6bb5\u53ef\u4ee5\u9002\u5f53\u63d0\u9ad8\u4ef7\u683c\uff0c\u5e73\u5cf0\u65f6\u6bb5\u53ef\u4ee5\u964d\u4f4e\u4ef7\u683c\uff0c\u4ece\u800c\u5728\u6574\u4f53\u4e0a\u8fbe\u5230\u4e00\u79cd\u5e73\u8861\u3002
p87
aV\u89c2\u70b9\u4e8c\uff1a\u7b80\u5355\u6309\u91cc\u7a0b\u8ba1\u4ef7\u6216\u4ec5\u4ec5\u9ad8\u5cf0\u65f6\u6bb5\u8c03\u4ef7\uff0c\u90fd\u4e0d\u79d1\u5b66\uff0c\u8981\u7ecf\u8fc7\u8be6\u7ec6\u7684\u8c03\u7814\uff0c\u7efc\u5408\u8003\u8651\uff0c\u5efa\u7acb\u79d1\u5b66\u5408\u7406\u7684\u4ef7\u683c\u4f53\u7cfb\u3002
p88
aV\u5408\u7406\u7684\u63d0\u4ef7\u65b9\u6848\u5e94\u662f\u5236\u5b9a\u4e00\u4e2a\u52a8\u6001\u3001\u53ef\u6301\u7eed\u7684\u4ef7\u683c\u4f53\u7cfb\u3002
p89
aV\u56fd\u5bb6\u53d1\u6539\u59d4\u7efc\u5408\u8fd0\u8f93\u7814\u7a76\u6240\u57ce\u5e02\u4ea4\u901a\u7814\u7a76\u5ba4\u4e3b\u4efb\u7a0b\u4e16\u4e1c\u8868\u793a\uff1a\u201c\u8def\u7a0b\u8d8a\u957f\u82b1\u8d39\u8d8a\u591a\uff0c\u8fd9\u662f\u6bd4\u8f83\u5408\u7406\u7684\uff0c\u6211\u8d5e\u6210\u6309\u91cc\u7a0b\u5206\u6bb5\u8ba1\u4ef7\uff0c\u4e0e\u9ad8\u5cf0\u63d0\u4ef7\u76f8\u7ed3\u5408\u3002\u6839\u636e\u51fa\u884c\u7684\u8ddd\u79bb\u548c\u65f6\u95f4\u6709\u6da8\u6709\u964d\u3002\u6bd4\u5982\uff0c\u5e73\u5cf0\u7684\u65f6\u5019\uff0c\u53ef\u80fd\u4ef7\u683c\u964d\u52301.5\u5143\uff0c\u4ee5\u6b64\u4e3a\u5e95\u4ef7\u518d\u6309\u8ddd\u79bb\u6765\u8ba1\u8d39\u3002\u9ad8\u5cf0\u7684\u8bdd\uff0c\u4ee52\u5143\u4e3a\u5e95\u4ef7\uff0c\u6309\u7ad9\u6570\u589e\u52a0\u8ba1\u8d39\u3002\u201d
p90
aV\u5bf9\u4e8e\u76ee\u524d\u6b63\u5728\u915d\u917f\u7684\u56db\u4e2a\u65b9\u6848\uff0c\u5f90\u5eb7\u660e\u8868\u793a\uff0c\u8fd9\u5bf9\u4e8e\u7cbe\u786e\u8c03\u4ef7\u6765\u8bf4\uff0c\u8fd8\u8fdc\u8fdc\u4e0d\u591f\uff0c\u5e94\u8be5\u6709\u4e00\u4e9b\u66f4\u591a\u7684\u65b9\u6848\u53ef\u4f9b\u9009\u62e9\uff0c\u6211\u5efa\u8bae\u91c7\u53d6\u201c\u5b9a\u5411\u8865\u8d34\u201d\u7684\u65b9\u6848\u3002\u6bd4\u5982\uff0c\u9488\u5bf9\u4e00\u4e9b\u4f4e\u6536\u5165\u4eba\u7fa4\uff0c\u901a\u8fc7\u8865\u8d34\u7684\u5f62\u5f0f\uff0c\u9632\u6b62\u51fa\u884c\u6210\u672c\u589e\u52a0\u7ed9\u4ed6\u4eec\u7684\u751f\u6d3b\u5e26\u6765\u538b\u529b\u3002\u5176\u6b21\uff0c\u5bf9\u4e8e\u8001\u5e74\u4eba\u3001\u5b66\u751f\u5e94\u6709\u76f8\u5e94\u7684\u4f18\u5f85\u6216\u8865\u8d34\u3002\u518d\u6b21\uff0c\u5bf9\u4e8e\u516c\u5171\u4ea4\u901a\u4e0d\u5b8c\u5584\u7684\u533a\u57df\uff0c\u5e94\u6709\u76f8\u5e94\u7684\u8865\u8d34\u3002
p91
aV\u5317\u4eac\u5e02\u4ea4\u901a\u59d4\u8fd0\u8f93\u5c40\u8f68\u9053\u5904\u76f8\u5173\u8d1f\u8d23\u4eba\u8868\u793a\uff0c\u6b64\u6b21\u8c03\u7814\uff0c\u8003\u8651\u7684\u7efc\u5408\u56e0\u7d20\u5f88\u591a\u3002\u9996\u5148\uff0c\u8981\u8003\u8651\u8f68\u9053\u4ea4\u901a\u7684\u516c\u76ca\u6027\u5b9a\u4f4d\uff1b\u5176\u6b21\uff0c\u7531\u4e8e\u8f68\u9053\u4ea4\u901a\u7684\u62e5\u6324\uff0c\u5982\u4f55\u8ba9\u5730\u9762\u516c\u4ea4\u80fd\u591f\u5206\u62c5\u5176\u5ba2\u6d41\uff1b\u5176\u4e09\uff0c\u5728\u7968\u4ef7\u8c03\u6574\u7684\u8fc7\u7a0b\u4e2d\uff0c\u653f\u5e9c\u4e0e\u5e02\u6c11\u6240\u9700\u8981\u627f\u62c5\u7684\u6bd4\u91cd\uff1b\u5176\u56db\uff0c\u4ece\u5e02\u6c11\u89d2\u5ea6\u8003\u91cf\uff0c\u901a\u52e4\u6210\u672c\u5728\u5e02\u6c11\u7684\u6536\u5165\u4e2d\u6240\u5360\u5230\u7684\u6bd4\u7387\uff1b\u6700\u540e\uff0c\u8fd8\u8981\u8003\u8651\u5230\u5305\u62ec\u5730\u94c1\u3001\u5730\u9762\u516c\u4ea4\u7b49\u6574\u4e2a\u516c\u5171\u4ea4\u901a\u67b6\u6784\u7684\u8c03\u6574\u3002
p92
aV\u89c2\u70b9\u4e00\uff1a\u5c31\u804c\u4e8e\u4e00\u5bb6\u8d85\u5e02\u7684\u804c\u5458\u738b\u6653\u8bf4\uff0c\u5730\u94c1\u6da8\u4ef7\u540e\uff0c\u5982\u679c\u5206\u6bb5\u8ba1\u4ef7\uff0c\u5355\u7a0b\u7968\u4ef7\u8d85\u8fc7\u4e866\u5757\uff0c\u6bcf\u6708\u5750\u5730\u94c1\u6210\u672c\u5c31\u589e\u52a0\u4e86\u5c06\u8fd1400\u5143\u3002\u8fd9\u6837\u81ea\u5df1\u7684\u51fa\u884c\u6210\u672c\u4f1a\u63d0\u9ad8\u5f88\u591a\u3002\u5982\u679c\u6da8\u4ef7\uff0c\u6211\u4f1a\u8003\u8651\u4e58\u5750\u516c\u4ea4\u51fa\u884c\u3002
p93
aV\u89c2\u70b9\u4e8c\uff1a\u5916\u4f01\u804c\u5de5\u6797\u6b23\u5149\u8bf4\uff0c\u5730\u94c1\u6bd4\u8f83\u65b9\u4fbf\u3001\u51c6\u65f6\u3001\u4e0d\u4f1a\u5835\u8f66\uff0c\u8fd9\u6837\u80fd\u4fdd\u8bc1\u6211\u7684\u51fa\u884c\u65f6\u95f4\u3002\u8fd9\u4e9b\u90fd\u662f\u201c\u4e0a\u73ed\u65cf\u201d\u9009\u62e9\u5730\u94c1\u51fa\u884c\u7684\u539f\u56e0\u3002\u5750\u516c\u4ea4\u7ecf\u5e38\u5835\u8f66\uff0c\u56e0\u6b64\u5373\u4f7f\u5730\u94c1\u7968\u4ef7\u8c03\u6574\uff0c\u4e5f\u4e0d\u4f1a\u5f71\u54cd\u6211\u5750\u5730\u94c1\u7684\u9009\u62e9\u3002
p94
aV\u5317\u4eac\u5e02\u4ea4\u901a\u59d4\u901a\u8fc7\u5bf9\u4e58\u5ba2\u51fa\u884c\u76ee\u7684\u7684\u8c03\u67e5\u53d1\u73b0\uff0c\u9ad8\u5cf0\u65f6\u6bb5\u7684\u5730\u94c1\u51fa\u884c\u4e2d\uff0c\u901a\u52e4\u51fa\u884c\u6bd4\u4f8b\u4e3a61.7%\uff0c\u516c\u52a1\u51fa\u884c\u6bd4\u4f8b\u4e3a11.8%\uff0c\u751f\u6d3b\u7c7b\u51fa\u884c\u6bd4\u4f8b\u7ea6\u4e3a26.5%\u3002\u8fd9\u8868\u660e\uff0c\u51fa\u884c\u521a\u9700\u5728\u5730\u94c1\u901a\u52e4\u4e2d\u5360\u5f88\u5927\u6bd4\u4f8b\uff0c\u901a\u8fc7\u6da8\u4ef7\u7f13\u89e3\u5730\u94c1\u9ad8\u5cf0\u65f6\u6bb5\u62e5\u5835\u5c06\u53d7\u5230\u4e00\u5b9a\u6311\u6218\u3002
p95
aV\u9a6c\u4f2f\u5937\u4ecb\u7ecd\uff0c\u8f68\u9053\u4ea4\u901a\u63a8\u51fa\u4f4e\u7968\u4ef7\uff0c\u6b63\u662f\u5229\u7528\u65b9\u4fbf\u3001\u51c6\u65f6\u3001\u5feb\u6377\u7b49\u4f18\u52bf\uff0c\u5f15\u5bfc\u5e02\u6c11\u653e\u5f03\u5c0f\u6c7d\u8f66\u51fa\u884c\uff0c\u7f13\u89e3\u57ce\u5e02\u5730\u9762\u4ea4\u901a\u62e5\u5835\u3002\u7136\u800c\uff0c\u7531\u4e8e\u9ad8\u5cf0\u65f6\u6bb5\u5ba2\u6d41\u6784\u6210\u4e0d\u5408\u7406\uff0c\u5438\u5f15\u4e86\u5927\u91cf\u77ed\u8ddd\u79bb\u3001\u751f\u6d3b\u7c7b\u4eba\u7fa4\u51fa\u884c\uff0c\u8f68\u9053\u4ea4\u901a\u5df2\u7ecf\u8f6c\u53d8\u4e3a\u4e0e\u5730\u9762\u516c\u4ea4\u4e89\u593a\u5ba2\u6d41\u7684\u4ea4\u901a\u65b9\u5f0f\u3002
p96
aV\u4e00\u822c\u6765\u8bf4\uff0c10\u516c\u91cc\u4ee5\u4e0b\u7684\u77ed\u8ddd\u79bb\u51fa\u884c\u7531\u5730\u9762\u516c\u4ea4\u627f\u62c5\u8f83\u4e3a\u5408\u9002\u3002\u800c\u5317\u4eac\u5730\u94c1\u8fc7\u591a\u627f\u62c5\u4e86\u77ed\u8ddd\u79bb\u7684\u51fa\u884c\u3002\u8c03\u67e5\u663e\u793a\uff0c\u5728\u4e58\u5750\u5730\u94c1\u7684\u4e58\u5ba2\u4e2d\uff0c\u4e58\u57506\u516c\u91cc\u4ee5\u4e0b\u7684\u5360\u523015%\u5de6\u53f3\u3002\u8fd9\u90e8\u5206\u4eba\u662f\u5426\u53ef\u4ee5\u91c7\u53d6\u5176\u4ed6\u65b9\u5f0f\uff0c\u6bd4\u5982\u516c\u4ea4\u7b49\u5730\u9762\u4ea4\u901a\uff0c\u907f\u514d\u6324\u5730\u94c1\uff0c\u4e5f\u662f\u4ea4\u901a\u90e8\u95e8\u5e0c\u671b\u901a\u8fc7\u4e58\u5750\u8ddd\u79bb\u8c03\u6574\u4ef7\u683c\u7684\u4e00\u4e2a\u601d\u8def\u3002
p97
aV\u636e\u8c03\u67e5\uff0c\u4e0e\u5730\u94c1\u5ba2\u6d41\u5e74\u5747\u589e\u957f30%\u76f8\u5bf9\u7167\uff0c\u516c\u4ea4\u5ba2\u6d41\u4e0d\u589e\u53cd\u964d\uff0c\u516c\u4ea4\u7684\u8fd0\u529b\u95f2\u7f6e\u3002\u5317\u4eac\u5e02\u5730\u9762\u516c\u4ea4\u76ee\u524d\u7684\u65e5\u5ba2\u8fd0\u80fd\u529b1700\u4e07\u4eba\u6b21\uff0c\u800c\u5b9e\u9645\u6bcf\u5929\u8fd0\u529b\u57281300\u4e07\u4eba\u6b21\u5de6\u53f3\u3002
p98
aV\u5bf9\u6b64\uff0c\u5317\u4eac\u5e02\u4ea4\u901a\u59d4\u8fd0\u8f93\u5c40\u76f8\u5173\u4eba\u58eb\u8868\u793a\uff0c\u672a\u6765\u53ef\u80fd\u5c06\u8003\u8651\u5bf9\u901a\u52e4\u4e58\u5ba2\u8fdb\u884c\u7968\u4ef7\u4f18\u60e0\uff0c\u5c06\u5408\u7406\u4fdd\u62a4\u51fa\u884c\u521a\u9700\u3002
p99
aV\u9a6c\u4f2f\u5937\u8868\u793a\uff0c\u5317\u4eac\u5e02\u4ea4\u901a\u59d4\u8fd8\u5c06\u7efc\u5408\u8003\u8651\u5404\u65b9\u9762\u56e0\u7d20\uff0c\u901a\u8fc7\u7cbe\u51c6\u5b9a\u4f4d\u540e\u7684\u4ef7\u683c\u8c03\u6574\uff0c\u624d\u80fd\u8fbe\u5230\u8c03\u8282\u5ba2\u6d41\u3001\u4fdd\u62a4\u51fa\u884c\u521a\u9700\u7684\u7efc\u5408\u6548\u679c\u3002
p100
asg19
V\u5730\u94c1\u7968\u4ef7\uff0c\u5982\u4f55\u8c03\u6574\u624d\u79d1\u5b66
p101
sa(dp102
g2
S'http://travel.gmw.cn/2014-12/11/content_14141758.htm'
p103
sg4
V2014-12-11 18:20
p104
sg6
(lp105
V\u672c\u670828\u65e5\u8d77\uff0c\u5730\u94c1\u7968\u5c06\u9996\u6b21\u8bbe\u5b9a\u6709\u6548\u671f\u3002\u4e58\u5ba2\u5237\u5361\u8fdb\u7ad9\u540e\uff0c\u987b\u57284\u5c0f\u65f6\u5185\u51fa\u7ad9\uff0c\u5426\u5219\u5c06\u6309\u5355\u7a0b\u6700\u4f4e\u7968\u4ef7\u8865\u4ea4\u8d85\u65f6\u8f66\u8d39\u540e\u624d\u53ef\u51fa\u7ad9\u3002
p106
aV\u5730\u94c1\u7968\u4ef7\u8fd8\u6ca1\u8c03\u6574\uff0c\u7f51\u4e0a\u5df2\u7ecf\u75af\u4f20\u5404\u79cd\u9003\u7968\u653b\u7565\u3002\u6628\u65e5\uff0c\u5317\u4eac\u5730\u94c1\u901a\u8fc7\u5b98\u65b9\u5fae\u535a\u9996\u6b21\u56de\u5e94\uff1a\u4e58\u5ba2\u4e58\u5750\u8f68\u9053\u4ea4\u901a\uff0c\u4ece\u5237\u5361\u8fdb\u7ad9\u8ba1\u7b97\uff0c\u4e00\u6b21\u884c\u7a0b\u5728\u4ed8\u8d39\u533a\u5185\u6700\u591a\u505c\u75594\u5c0f\u65f6\uff0c\u8d85\u8fc74\u5c0f\u65f6\u7684\u6309\u5355\u7a0b\u6700\u4f4e\u7968\u4ef7\u8865\u4ea4\u8d85\u65f6\u8f66\u8d39\u51fa\u7ad9\u3002
p107
aV4\u5c0f\u65f6\u662f\u5426\u591f\u7528\uff1f\u4ece\u623f\u5c71\u7ebf\u7684\u7ec8\u70b9\u7ad9\u82cf\u5e84\u7ad9\u5750\u5730\u94c1\u523015\u53f7\u7ebf\u7684\u7ec8\u70b9\u7ad9\u4ff8\u4f2f\u7ad9\uff0c\u9014\u7ecf47\u5ea7\u5730\u94c1\u7ad9\uff0c\u7ea688\u516c\u91cc\u3002\u8fd9\u7b97\u662f\u76ee\u524d\u7ebf\u7f51\u91cc\u8ddd\u79bb\u6700\u8fdc\u7684\u4e00\u6b21\u51fa\u884c\u3002\u6309\u7167\u5317\u4eac\u5730\u94c1\u5b98\u65b9APP\u8f6f\u4ef6\u8ba1\u7b97\uff0c\u5168\u7a0b\u5927\u7ea6\u9700\u8981143\u5206\u949f\u3002\u4e00\u4f4d\u5730\u94c1\u8ff7\u8bf4\uff1a\u201c\u5373\u4f7f\u6362\u4e58\u7684\u65f6\u5019\u4eba\u5f88\u591a\uff0c\u751a\u81f3\u9047\u5230\u4e86\u77ed\u65f6\u9650\u6d41\uff0c4\u4e2a\u5c0f\u65f6\u4e5f\u8db3\u591f\u6b63\u5e38\u8fdb\u51fa\u7ad9\u4e86\u3002\u201d
p108
aV\u5728\u5404\u79cd\u9003\u7968\u653b\u7565\u4e2d\uff0c\u6709\u5f88\u591a\u201c\u7701\u94b1\u201d\u65b9\u5f0f\uff0c\u6bd4\u5982\u4e2d\u9014\u6362\u5361\u3001\u4f7f\u7528A/B\u5361\u51fa\u7ad9\u6216\u8005\u672c\u7ad9\u8fdb\u51fa\u7b49\u60c5\u51b5\u3002\u4ee5\u4f7f\u7528A/B\u5361\u4e3a\u4f8b\uff0c\u4f7f\u7528\u4eba\u5982\u679c\u5728\u4e1c\u5355\u4e0a\u73ed\uff0c\u5728\u82f9\u679c\u56ed\u5c45\u4f4f\uff0c\u7b2c\u4e00\u5929\u4e0a\u73ed\u65f6\uff0c\u5728\u82f9\u679c\u56ed\u5237A\u5361\uff0c\u4e4b\u540e\u4e58\u8f66\u5230\u4e1c\u5355\uff0c\u4e0d\u5237A\u5361\uff0c\u5148\u5230\u8fdb\u7ad9\u53e3\u5237\u4e00\u4e0bB\u5361\uff0c\u7136\u540e\u518d\u5237B\u5361\u51fa\u7ad9\uff0c\u8fd9\u8d9f\u884c\u7a0b\u5c31\u53ef\u4ee5\u53ea\u82b1\u8d39\u6700\u4f4e\u7968\u4ef73\u5143\uff1b\u665a\u4e0a\u4e0b\u73ed\u65f6\uff0c\u4ece\u4e1c\u5355\u8fdb\u7ad9\uff0c\u5237B\u5361\u8fdb\u7ad9\uff0c\u5230\u4e86\u82f9\u679c\u56ed\u540e\u5237A\u5361\u51fa\u7ad9\uff0c\u7531\u4e8e\u65e9\u4e0aA\u5361\u66fe\u5728\u6b64\u6709\u8fc7\u4e00\u6b21\u8fdb\u7ad9\u8bb0\u5f55\uff0c\u6240\u4ee5\u8fd9\u8d9f\u884c\u7a0b\u4ecd\u7136\u53ea\u9700\u8981\u82b1\u8d39\u6700\u4f4e\u7968\u4ef73\u5143\u3002\u7b2c\u4e8c\u5929\u7ee7\u7eed\u53c2\u7167\u6b64\u529e\u6cd5\u6267\u884c\uff0c\u4e0a\u73ed\u65f6\u5728\u82f9\u679c\u56ed\u5237A\u5361\u8fdb\u7ad9\uff0c\u5230\u4e86\u4e1c\u5355\uff0c\u5237\u524d\u4e00\u5929\u6709\u8fc7\u8fdb\u7ad9\u8bb0\u5f55\u7684B\u5361\u51fa\u7ad9\uff0c\u5468\u800c\u590d\u59cb\uff0c\u5c31\u80fd\u6bcf\u5929\u90fd\u7528\u6700\u4f4e\u7968\u4ef7\u4e58\u8f66\u4e86\u3002\u4f464\u5c0f\u65f6\u6709\u6548\u671f\u7684\u89c4\u5b9a\u51fa\u53f0\u540e\uff0c\u8fd9\u4e2a\u529e\u6cd5\u5c31\u4e0d\u53ef\u884c\u4e86\u3002
p109
aV\u5317\u4eac\u5730\u94c1\u65b9\u9762\u8868\u793a\uff0c\u4eca\u540e\uff0c\u4e2d\u9014\u6362\u5361\u3001\u4f7f\u7528A/B\u5361\u51fa\u7ad9\u6216\u8005\u672c\u7ad9\u8fdb\u51fa\u7b49\u884c\u4e3a\u90fd\u5c06\u88ab\u8ba4\u5b9a\u4e3a\u4e58\u5ba2\u8fdd\u89c4\u8fdb\u51fa\u8f66\u7ad9\uff0c\u4e0e\u9003\u7968\u884c\u4e3a\u9762\u4e34\u540c\u7b49\u5904\u7f5a\u3002\u5904\u7f5a\u5c06\u6309\u7167\u8def\u7f51\u5355\u7a0b\u6700\u9ad8\u7968\u4ef7\u768410\u500d\u8865\u4ea4\u7968\u6b3e\u3002\u6309\u7167\u76ee\u524d\u8def\u7f51\u60c5\u51b5\uff0c\u7f5a\u6b3e\u91d1\u989d\u6700\u9ad8\u5c06\u8fbe90\u5143\u3002
p110
aV\u5bf9\u4e8e\u540c\u7ad9\u8fdb\u51fa\u7b97\u8fdd\u89c4\u8fdb\u51fa\u8f66\u7ad9\u7684\u8bf4\u6cd5\uff0c\u4e1a\u5185\u4eba\u58eb\u89e3\u91ca\uff0c\u4e3b\u8981\u662f\u9488\u5bf9\u957f\u671f\u5728\u5730\u94c1\u7ad9\u5185\u6ede\u7559\u4eba\u5458\u7684\u4e00\u79cd\u4e3e\u63aa\u3002\u8fd9\u4e5f\u5728\u4e00\u5b9a\u7a0b\u5ea6\u4e0a\u675c\u7edd\u4e86\u6709\u4eba\u610f\u56fe\u4f7f\u7528A/B\u5361\u901a\u52e4\u7684\u884c\u4e3a\u3002\u540c\u65f6\uff0c\u8fd0\u8425\u4f01\u4e1a\u4e5f\u5c06\u52a0\u5927\u7a3d\u67e5\u529b\u5ea6\u3002
p111
aV\u8fd1\u671f\uff0c\u6bcf\u5ea7\u5730\u94c1\u8f66\u7ad9\u51fa\u5165\u53e3\u3001\u7ad9\u5385\u3001\u901a\u9053\u3001\u552e\u7968\u5904\uff08\u6216\u552e\u7968\u7cfb\u7edf\uff09\u5c06\u589e\u52a0\u9192\u76ee\u7684\u8ba1\u7a0b\u5236\u7968\u4ef7\u56fe\u8868\u3001\u8d2d\u7968\u6d41\u7a0b\u548c\u7968\u52a1\u653f\u7b56\uff0c\u5f15\u5bfc\u4e58\u5ba2\u5408\u7406\u6709\u5e8f\u4e58\u8f66\u3002
p112
aV\u53e6\u5916\uff0c\u8fd1\u671f\u7f51\u7edc\u4e0a\u6d41\u4f20\u7684\u201c\u5317\u4eac\u5730\u94c1\u5145\u503c\u7cfb\u7edf\u6f0f\u6d1e\u201d\u7684\u5e16\u5b50\uff0c\u7ecf\u6838\u5b9e\u7eaf\u5c5e\u9020\u8c23\u3002\u5317\u4eac\u5730\u94c1\u81ea\u52a8\u552e\u68c0\u7968\u7cfb\u7edf\u7b26\u5408\u56fd\u5bb6\u5b89\u5168\u7b49\u7ea7\u6807\u51c6\u8981\u6c42\uff0c\u5177\u5907\u5168\u9762\u7684\u5b89\u5168\u9632\u8303\u4e0e\u63a7\u5236\u80fd\u529b\u3002\u5317\u4eac\u5730\u94c1\u5728\u5fae\u535a\u4e2d\u63d0\u793a\uff1a\u8bf7\u5e02\u6c11\u4e0d\u4fe1\u8c23\u3001\u4e0d\u4f20\u8c23\uff0c\u8c28\u9632\u4e0a\u5f53\u53d7\u9a97\u9020\u6210\u635f\u5931\uff0c\u89c4\u8303\u4f7f\u7528\u8f66\u7968\uff0c\u6587\u660e\u4e58\u8f66\u3002\u76ee\u524d\uff0c\u516c\u5b89\u90e8\u95e8\u5bf9\u6b64\u4e8b\u5df2\u7ecf\u4ecb\u5165\u8c03\u67e5\uff0c\u8bf7\u5e02\u6c11\u9075\u5b88\u56fd\u5bb6\u6709\u5173\u6cd5\u5f8b\u6cd5\u89c4\u3002\uff08\u8bb0\u8005\u5218\u5195\uff09
p113
asg19
V\u5317\u4eac\u5730\u94c1\u7968\u8bbe4\u5c0f\u65f6\u65f6\u9650\u4e2d\u9014\u6362\u5361\u7f5a10\u500d\u6700\u8d35\u7968\u4ef7
p114
sa(dp115
g2
S'http://difang.gmw.cn/fj/2017-12/27/content_27201860.htm'
p116
sg4
V2017-12-27 15:26
p117
sg6
(lp118
V\u8ddd\u79bb\u53a6\u95e8\u5730\u94c11\u53f7\u7ebf\u5f00\u901a\u8bd5\u8fd0\u8425\u7684\u65e5\u5b50\u8d8a\u6765\u8d8a\u8fd1\u3002\u90a3\u4e48\uff0c\u4e58\u5730\u94c1\u51fa\u884c\u8d35\u4e0d\u8d35\uff1b\u5982\u4f55\u8d2d\u4e70\u5730\u94c1\u8f66\u7968\uff1b\u7ad9\u5385\u7684\u8bbe\u5907\u5982\u4f55\u4f7f\u7528\uff1b\u4e58\u5750\u5730\u94c1\u65f6\u8be5\u6ce8\u610f\u4ec0\u4e48\uff1f\u8fd9\u4e9b\u95ee\u9898\u5907\u53d7\u5e02\u6c11\u5173\u6ce8\u3002\u4ee5\u4e0b\u662f\u8bb0\u8005\u6574\u7406\u7684\u53a6\u95e8\u5730\u94c1\u4e58\u5750\u6307\u5357\uff0c\u4ece\u8fdb\u51fa\u7ad9\u5230\u5982\u4f55\u8d2d\u7968\u4e00\u7f51\u6253\u5c3d\uff0c\u8ba9\u60a8\u53ef\u4ee5\u8f7b\u677e\u638c\u63e1\uff0c\u5feb\u4e50\u51fa\u884c\u3002
p119
aV\u5730\u94c11\u53f7\u7ebf\u6cbf\u7ebf\u5171\u8bbe24\u4e2a\u8f66\u7ad9\uff0c\u4e58\u5ba2\u53ef\u6839\u636e\u5730\u94c1\u5bfc\u5411\u6807\u8bc6\u5230\u8fbe\u8f66\u7ad9\u51fa\u5165\u53e3\u3002\u6bcf\u4e2a\u8f66\u7ad9\u8bbe\u6709\u4e24\u4e2a\u4ee5\u4e0a\u7684\u51fa\u5165\u53e3\uff0c\u4e58\u5ba2\u53ef\u6839\u636e\u7ad9\u5916\u5bfc\u5411\u6807\u8bc6\u4e58\u5750\u81ea\u52a8\u6276\u68af\u6216\u8005\u901a\u8fc7\u697c\u68af\u8fdb\u5165\u8f66\u7ad9\u7ad9\u5385\u3002
p120
aV\u8fdb\u5165\u7ad9\u5385\u540e\uff0c\u4e58\u5ba2\u53ef\u5230TVM(\u81ea\u52a8\u552e\u7968\u673a)\u81ea\u52a9\u5f0f\u8d2d\u4e70\u5355\u7a0b\u7968\uff0cTVM\u8bbe\u7f6e\u5728\u8f66\u7ad9\u7ad9\u5385\u4e24\u7aef\uff0cTVM\u53ef\u9009\u62e9\u73b0\u91d1\u652f\u4ed8\u6216\u652f\u4ed8\u5b9d\u3001\u5fae\u4fe1\u8fdb\u884c\u5728\u7ebf\u652f\u4ed8\u3002TVM\u4e0a\u5370\u6709\u8be6\u7ec6\u7684\u8d2d\u7968\u6d41\u7a0b\uff0c\u4e58\u5ba2\u6839\u636e\u6d41\u7a0b\u63d0\u793a\u8fdb\u884c\u8d2d\u7968\u5373\u53ef\u3002\u9700\u63d0\u9192\u7684\u662f\uff0c\u8fdb\u95f8\u540e\u5355\u7a0b\u7968\u7684\u6709\u6548\u65f6\u95f4\u4e3a2\u5c0f\u65f6\u3002
p121
aV\u8fdb\u7ad9\u4e58\u8f66\u524d\u4e58\u5ba2\u9700\u63a5\u53d7\u5b89\u5168\u68c0\u67e5\uff0c\u968f\u8eab\u643a\u5e26\u7684\u884c\u674e\u3001\u7269\u54c1\u901a\u8fc7\u5b89\u68c0\u4eba\u5458\u7684\u68c0\u67e5\u540e\uff0c\u5373\u53ef\u8fdb\u7ad9\u4e58\u8f66\u3002
p122
aV\u5b89\u68c0\u901a\u8fc7\u540e\uff0c\u5728\u8f66\u7ad9\u8fdb\u7ad9\u95f8\u53e3\u5904\u5c06\u5355\u7a0b\u7968\u6216\u4e8c\u7ef4\u7801\u653e\u5728\u6307\u5b9a\u7684\u5237\u7968\u533a\u57df\uff0c\u5f85\u8fdb\u7ad9\u95f8\u95e8\u6253\u5f00\u540e\uff0c\u8bf7\u8fc5\u901f\u901a\u8fc7\u3002
p123
aV\u6839\u636e\u7ad9\u5385\u5185\u7684\u5bfc\u5411\u6807\u8bc6\uff0c\u4e58\u5ba2\u53ef\u9009\u62e9\u6b63\u786e\u7684\u4e58\u8f66\u65b9\u5411\uff0c\u7136\u540e\u4f7f\u7528\u81ea\u52a8\u6276\u68af\u3001\u697c\u68af\u6216\u65e0\u969c\u788d\u7535\u68af\u524d\u5f80\u7ad9\u53f0\u5019\u8f66\u3002\u5230\u8fbe\u7ad9\u53f0\u540e\uff0c\u8bf7\u7ad9\u5728\u9ec4\u7ebf\u5185\u6392\u961f\u5019\u8f66\u3002\u5728\u7ad9\u53f0\u533a\u4e0a\u65b9\uff0c\u8bbe\u7f6e\u6709\u7535\u5b50\u663e\u793a\u5c4f\uff0c\u4e0a\u9762\u4f1a\u663e\u793a\u6700\u8fd1\u5217\u8f66\u5230\u7ad9\u65f6\u95f4\u3001\u4e0b\u6b21\u5f00\u5f80\u4e0b\u4e2a\u7ad9\u70b9\u7684\u65f6\u95f4\u7b49\u4fe1\u606f\u3002
p124
aV\u6b63\u5e38\u60c5\u51b5\u4e0b\uff0c\u5217\u8f66\u5230\u7ad9\uff0c\u5c4f\u853d\u95e8\u548c\u8f66\u95e8\u6253\u5f00\u540e\uff0c\u4e58\u5ba2\u5e94\u9075\u4ece\u5148\u4e0b\u540e\u4e0a\u7684\u79e9\u5e8f\u4e0a\u4e0b\u8f66\uff0c\u4e0d\u8981\u62e5\u6324\u3002\u8f66\u53a2\u95e8\u548c\u5c4f\u853d\u95e8\u7f13\u7f13\u5173\u4e0a\u65f6\uff0c\u5217\u8f66\u4f1a\u53d1\u51fa\u201c\u6ef4\u6ef4\u6ef4\u2026\u2026\u201d\u7684\u63d0\u793a\u97f3\uff0c\u544a\u77e5\u4e58\u5ba2\u5217\u8f66\u5373\u5c06\u542f\u52a8\u3002\u4e0a\u8f66\u65f6\uff0c\u8bf7\u7559\u610f\u5217\u8f66\u548c\u7ad9\u53f0\u4e4b\u95f4\u7684\u7f1d\u9699\uff0c\u9632\u6b62\u8e0f\u7a7a\u3001\u7eca\u5012\u3002\u4e0a\u8f66\u540e\u8bf7\u5f80\u8f66\u53a2\u4e2d\u90e8\u8d70\uff0c\u4e0d\u8981\u501a\u9760\u8f66\u95e8\uff0c\u4e58\u8f66\u65f6\u8bf7\u52ff\u996e\u98df\uff0c\u975e\u7d27\u6025\u60c5\u51b5\u4e0b\uff0c\u5207\u52ff\u542f\u52a8\u5217\u8f66\u7d27\u6025\u88c5\u7f6e\u6216\u88c5\u5907\u3002
p125
aV\u4e58\u5ba2\u5e94\u53ca\u65f6\u7559\u610f\u8f66\u4e0a\u663e\u793a\u5c4f\u7684\u663e\u793a\u4fe1\u606f\u53ca\u5217\u8f66\u5230\u7ad9\u5e7f\u64ad\uff0c\u63d0\u524d\u505a\u597d\u4e0b\u8f66\u51c6\u5907\u3002\u5f53\u5217\u8f66\u5230\u7ad9\u540e\uff0c\u5f85\u8f66\u95e8\u548c\u5c4f\u853d\u95e8\u5b8c\u5168\u6253\u5f00\u65f6\uff0c\u4e58\u5ba2\u518d\u643a\u5e26\u597d\u968f\u8eab\u7269\u54c1\uff0c\u6309\u7167\u5148\u4e0b\u540e\u4e0a\u7684\u987a\u5e8f\u4e0b\u8f66\uff0c\u540c\u65f6\u6ce8\u610f\u5217\u8f66\u4e0e\u7ad9\u53f0\u4e4b\u95f4\u7684\u7f1d\u9699\uff0c\u4e0d\u8981\u62e5\u6324\u3001\u63a8\u6421\uff0c\u8c28\u9632\u6454\u5012\u3002\u8f66\u95e8\u5173\u95ed\u540e\uff0c\u4e25\u7981\u5f3a\u884c\u4e0b\u8f66\u3002
p126
aV\u5230\u8fbe\u7ad9\u5385\u540e\uff0c\u8bf7\u4e58\u5ba2\u6839\u636e\u7ad9\u5185\u6807\u8bc6\u524d\u5f80\u5bf9\u5e94\u7684\u51fa\u95f8\u53e3\u6392\u961f\u7b49\u5019\u51fa\u7ad9\u3002\u51fa\u95f8\u65f6\uff0c\u6301\u5355\u7a0b\u7968\u7684\u4e58\u5ba2\u5728\u51fa\u7ad9\u95f8\u53e3\u5c06\u5355\u7a0b\u7968\u6295\u5165\u6295\u5e01\u53e3\u3002\u4e8c\u7ef4\u7801\u5237\u7968\u4e58\u5ba2\u53ef\u76f4\u63a5\u5728\u626b\u63cf\u5237\u7968\u533a\u626b\u7801\u51fa\u95f8\u3002\u6b63\u5e38\u60c5\u51b5\u4e0b\uff0c\u6295\u5e01\u6216\u626b\u7801\u540e\u95f8\u95e8\u6253\u5f00\uff0c\u4e58\u5ba2\u5373\u53ef\u51fa\u95f8\u3002
p127
aV\u82e5\u5355\u7a0b\u7968\u4e3a\u8d85\u65f6\u3001\u8d85\u7a0b\u3001\u6545\u969c\u3001\u8fc7\u671f\u7968\u7b49\u5f02\u5e38\u8f66\u7968\u65f6\uff0c\u6295\u5165\u7684\u8f66\u7968\u4f1a\u4ece\u9000\u7968\u53e3\u5410\u51fa\uff0c\u4e58\u5ba2\u53ef\u5c06\u8be5\u5f02\u5e38\u8f66\u7968\u62ff\u5230\u5ba2\u670d\u4e2d\u5fc3\u627e\u5de5\u4f5c\u4eba\u5458\u5904\u7406\u3002
p128
aV\u51fa\u7ad9\u65f6\uff0c\u4e58\u5ba2\u53ef\u6839\u636e\u8f66\u7ad9\u51fa\u5165\u53e3\u5468\u8fb9\u4fe1\u606f\u5bfc\u5411\u6807\u8bc6\u9009\u62e9\u79bb\u60a8\u76ee\u7684\u5730\u6700\u8fd1\u7684\u51fa\u5165\u53e3\u51fa\u7ad9\u3002
p129
aV\u7528\u73b0\u91d1\u652f\u4ed8\u7684\u65b9\u5f0f\uff0c\u901a\u8fc7\u5730\u94c1\u7ad9\u5185TVM(\u81ea\u52a8\u552e\u7968\u673a)\u81ea\u52a9\u5f0f\u8d2d\u4e70\u5355\u7a0b\u7968\uff0c\u5206\u4e3a\u4e94\u4e2a\u6b65\u9aa4:
p130
aV\u6309\u7167\u8d2d\u7968\u673a\u5c4f\u5e55\u63d0\u793a\u7684\u4fe1\u606f\u9009\u62e9\u76ee\u7684\u5730\u6216\u7968\u4ef7
p131
aV\u5728\u201c\u7eb8\u5e01\u5165\u53e3\u201d\u6295\u5165\u7eb8\u5e01\u8fdb\u884c\u8d2d\u7968
p132
aV\u5728\u53d6\u7968\u53e3\u53d6\u51fa\u8f66\u7968\u548c\u627e\u56de\u7684\u96f6\u94b1
p133
aV\u4e3a\u63d0\u5347\u4e58\u5ba2\u8d2d\u7968\u4f53\u9a8c\uff0c\u5730\u94c11\u53f7\u7ebfTVM(\u81ea\u52a8\u552e\u7968\u673a)\u9664\u4e86\u4f7f\u7528\u4f20\u7edf\u73b0\u91d1\u652f\u4ed8\u7684\u65b9\u5f0f\uff0c\u8fd8\u53ef\u4ee5\u9009\u62e9\u79fb\u52a8\u652f\u4ed8\u3002\u4e58\u5ba2\u5728TVM\u9009\u62e9\u76ee\u7684\u8f66\u7ad9\u540e\uff0c\u53ef\u901a\u8fc7\u624b\u673a\u626b\u7801\u7684\u65b9\u5f0f\u4f7f\u7528\u652f\u4ed8\u5b9d\u3001\u5fae\u4fe1\u8fdb\u884c\u5728\u7ebf\u652f\u4ed8\uff0c\u652f\u4ed8\u6210\u529f\u540e\uff0cTVM\u5c06\u53d1\u552e\u5355\u7a0b\u7968\u3002
p134
aV\u901a\u8fc7\u624b\u673a\u4e0b\u8f7d\u53a6\u95e8\u5730\u94c1\u5b98\u65b9App\u5e94\u7528\u8f6f\u4ef6(App\u540d\u79f0:\u53a6\u95e8\u5730\u94c1AMTR)\uff0c\u5373\u53ef\u5728\u624b\u673a\u4e0a\u8d2d\u4e70\u5730\u94c1\u7535\u5b50\u5355\u7a0b\u8f66\u7968\u3002\u8f66\u7968\u91c7\u7528\u4e8c\u7ef4\u7801\u7684\u5f62\u5f0f\uff0c\u53ef\u968f\u65f6\u968f\u5730\u5728\u7ebf\u8d2d\u4e70\uff0c\u8fd8\u53ef\u8d2d\u4e70\u591a\u5f20\u5730\u94c1\u7968\u3002\u8d2d\u7968\u6210\u529f\u540e\u6301\u624b\u673a\u5728\u95f8\u673a\u4e0a\u8fdb\u884c\u626b\u7801\u68c0\u7968\uff0c\u4fbf\u53ef\u987a\u5229\u8fdb\u51fa\u8f66\u7ad9\u3002
p135
aV\u9664\u4e86\u8d2d\u4e70\u5730\u94c1\u7968\uff0c\u514d\u8d39WiFi\u4e00\u952e\u8054\u7f51\uff0c\u53a6\u95e8\u5730\u94c1App\u8fd8\u5c06\u5373\u65f6\u63d0\u4f9b\u670d\u52a1\u4fe1\u606f\uff0c\u5982\u9996\u672b\u73ed\u8f66\u4fe1\u606f\u63a8\u9001\u7b49\u3002\u8fd8\u53ef\u4ee5\u67e5\u8be2\u5230\u5730\u94c1\u7ad9\u5185\u7acb\u4f53\u56fe\u548c\u7ad9\u5185\u8bbe\u65bd\uff0c\u7ad9\u5916\u5bfc\u5411\u8857\u533a\u56fe\uff0c\u5e76\u667a\u80fd\u63a8\u8350\u5468\u8fb9\u516c\u5171\u670d\u52a1\u8bbe\u65bd\uff0c\u4e00\u952e\u5bfc\u822a\u5230\u9644\u8fd1\u516c\u4ea4\u7ad9\u70b9\u3002
p136
aV\u76ee\u524d\uff0c\u5ba2\u670d\u4e2d\u5fc3\u5c97\u4e0d\u63d0\u4f9b\u4eba\u5de5\u552e\u5356\u5355\u7a0b\u7968\u670d\u52a1\u3002\u5ba2\u670d\u4e2d\u5fc3\u53ea\u53d1\u552e\u7eaa\u5ff5\u7968\u3001\u65c5\u6e38\u7968\u3001\u8ba1\u6b21\u7968\uff0c\u9884\u8d4b\u503c\u5355\u7a0b\u7968\u5e73\u65f6\u4e0d\u5355\u72ec\u5bf9\u5916\u53d1\u552e\u3002
p137
aV\u53a6\u95e8\u5730\u94c1\u4e00\u53f7\u7ebf\u5168\u7a0b\u5171\u8bbe24\u5ea7\u8f66\u7ad9\uff0c\u5b9e\u884c\u91cc\u7a0b\u5206\u6bb5\u8ba1\u4ef7\u7968\u5236:\u8d77\u6b65\u4ef7\u4e3a2\u5143/4\u516c\u91cc(\u542b)\uff0c\u8d85\u8fc74\u516c\u91cc\u540e\uff0c4-12\u516c\u91cc(\u542b)\uff0c\u6309\u6bcf4\u516c\u91cc\u52a0\u65361\u5143\u8ba1\u4ef7(\u4e0d\u8db34\u516c\u91cc\u63094\u516c\u91cc\u8ba1\u4ef7)\uff1b12-18\u516c\u91cc(\u542b)\uff0c\u6309\u6bcf6\u516c\u91cc\u52a0\u65361\u5143\u8ba1\u4ef7(\u4e0d\u8db36\u516c\u91cc\u63096\u516c\u91cc\u8ba1\u4ef7)\uff1b18-28\u516c\u91cc(\u542b)\uff0c\u6309\u6bcf10\u516c\u91cc\u52a0\u65361\u5143\u8ba1\u4ef7(\u4e0d\u8db310\u516c\u91cc\u630910\u516c\u91cc\u8ba1\u4ef7)\uff1b28-43\u516c\u91cc(\u542b)\uff0c\u6309\u6bcf15\u516c\u91cc\u52a0\u65361\u5143\u8ba1\u4ef7(\u4e0d\u8db315\u516c\u91cc\u630915\u516c\u91cc\u8ba1\u4ef7)\uff1b43\u516c\u91cc\u4ee5\u4e0a\u6309\u6bcf20\u516c\u91cc\u52a0\u65361\u5143\u8ba1\u4ef7(\u4e0d\u8db320\u516c\u91cc\u630920\u516c\u91cc\u8ba1\u4ef7)\u3002
p138
aV1\u53f7\u7ebf\u8d77\u6b65\u4ef7\u4e3a2\u5143\uff0c\u5168\u7ebf\u7968\u4ef7\u4e3a7\u5143\uff0c\u4e58\u5ba2\u6309\u89c4\u5b9a\u5206\u7c7b\u53ef\u5206\u522b\u4eab\u53d7\u514d\u8d39\u30015\u6298\u30019\u6298\u7684\u7968\u4ef7\u4f18\u60e0\u3002
p139
aV\u73b0\u884c\u5730\u94c1\u7968\u4ef7\u65b9\u6848\u6709\u54ea\u4e9b\u4f18\u60e0\u63aa\u65bd\uff1f
p140
aV\u4e00\u662f\u6301\u6613\u901a\u5361\u5237\u5361\u7684\uff0c\u6309\u7968\u4ef7\u76849\u6298\u4f18\u60e0\uff1b
p141
aV\u4e8c\u662f\u672c\u5e02\u5b66\u751f\u6301\u5b66\u751f\u5361\u5237\u5361\u7684\uff0c\u6309\u7968\u4ef7\u76845\u6298\u4f18\u60e0\uff1b
p142
aV\u4e09\u662f\u672c\u5e0265\u5468\u5c81\u4ee5\u4e0a\u8001\u4eba\u6301\u4e13\u7528\u6613\u901a\u5361\u3001\u672c\u770170\u5468\u5c81\u4ee5\u4e0a\u8001\u5e74\u4eba\u6301\u300a\u798f\u5efa\u7701\u8001\u4eba\u4f18\u5f85\u8bc1\u300b\u6bcf\u65e5\u9ad8\u5cf0\u65f6\u6bb5(7:00-9:00\uff0c17:00-19:00)\u6309\u7968\u4ef7\u76845\u6298\u4f18\u60e0\uff0c\u5176\u4f59\u65f6\u6bb5\u514d\u8d39\uff1b
p143
aV\u56db\u662f\u672c\u5e02\u7684\u52b3\u6a21\u3001\u70c8\u5c5e\u3001\u79bb\u4f11\u4eba\u5458\u3001\u91cd\u70b9\u4f18\u629a\u5bf9\u8c61\u7b49\u6301\u4e13\u7528\u7684\u6613\u901a\u5361\u5237\u5361\u7684\uff0c\u7ed9\u4e88\u514d\u8d39\uff1b
p144
aV\u4e94\u662f\u6301\u73b0\u5f79\u519b\u4eba(\u542b\u6b66\u8b66)\u7684\u76f8\u5173\u8bc1\u4ef6\uff0c\u89e3\u653e\u519b\u7684\u300a\u79bb\u4f11\u5e72\u90e8\u8363\u8a89\u8bc1\u300b\u300a\u519b\u5b98\u9000\u4f11\u8bc1\u300b\u300a\u6587\u804c\u5e72\u90e8\u9000\u4f11\u8bc1\u300b\uff0c\u4f24\u6b8b\u4eba\u5458\u7684\u300a\u6b8b\u75be\u4eba\u8bc1\u300b\u300a\u6b8b\u75be\u519b\u4eba\u8bc1\u300b\u300a\u4f24\u6b8b\u56fd\u5bb6\u673a\u5173\u5de5\u4f5c\u4eba\u5458\u8bc1\u300b\u300a\u4f24\u6b8b\u4eba\u6c11\u8b66\u5bdf\u8bc1\u300b\u300a\u4f24\u6b8b\u6c11\u5175\u6c11\u5de5\u8bc1\u300b\u300a\u8001\u5e72\u90e8\u79bb\u4f11\u8363\u8a89\u8bc1\u300b\u300a\u53cd\u6252\u6267\u52e4\u8bc1\u300b\u7b49\u4e58\u8f66\u7684\uff0c\u7ed9\u4e88\u514d\u8d39\uff1b
p145
aV\u516d\u662f\u6bcf\u4f4d\u6210\u4eba\u53ef\u4ee5\u514d\u8d39\u643a\u5e26\u4e00\u540d\u8eab\u9ad81.2\u7c73\u4ee5\u4e0b\u513f\u7ae5\u3002\uff08\u8bb0\u8005\u5f20\u5f66\u5b87\uff09
p146
asg19
V\u53a6\u95e8\u5730\u94c1\u4e58\u5750\u6307\u5357:\u5168\u7a0b\u5171\u8bbe24\u5ea7\u8f66\u7ad9\u5b9e\u884c\u91cc\u7a0b\u5206\u6bb5\u8ba1\u4ef7\u7968\u5236
p147
sa(dp148
g2
S'http://tech.gmw.cn/2017-12/25/content_27177817.htm'
p149
sg4
V2017-12-25 10:34
p150
sg6
(lp151
V12\u670822\u65e5\u4e0b\u5348\uff0c\u73af\u7403\u7f51\u79d1\u6280\u8bb0\u8005\u4ece\u5317\u4eac\u5730\u94c1\u516c\u53f8\u5b98\u65b9\u5fae\u535a@\u5317\u4eac\u5730\u94c1\u4e86\u89e3\u5230\uff0c12\u670823\u65e5\u8d77\uff0c\u5317\u4eac\u8f68\u9053\u4ea4\u901a\u5168\u8def\u7f51\u5b9e\u73b0\u7ebf\u4e0a\u8d2d\u7968\u3001\u8f66\u7ad9\u53d6\u7968\u3002\u5373\u4e58\u5ba2\u901a\u8fc7\u5317\u4eac\u8f68\u9053\u4ea4\u901a\u5355\u7a0b\u7968\u4e92\u8054\u7f51\u7968\u52a1\u670d\u52a1\u5e73\u53f0App\u8fdb\u884c\u7ebf\u4e0a\u8d2d\u7968\uff0c\u53ef\u5728\u5168\u8def\u7f51\u5404\u8f66\u7ad9FAM(\u7f51\u7edc\u53d6\u7968\u673a)\u4e0a\u8fdb\u884c\u53d6\u7968\u3001\u8fdb\u7ad9\u4e58\u8f66\u3002
p152
aV\u5317\u4eac\u5730\u94c1\u8868\u793a\uff0c\u4e3a\u8ba9\u66f4\u5e7f\u5927\u7684\u4e58\u5ba2\u4f53\u4f1a\u5230\u79fb\u52a8\u652f\u4ed8\u5e26\u6765\u7684\u4fbf\u6377\u51fa\u884c\uff0c\u63d0\u5347\u4e58\u5ba2\u7684\u83b7\u5f97\u611f\u548c\u5e78\u798f\u611f\uff0c2017\u5e7412\u670823\u65e5\u8d77\uff0c\u8be5\u5e73\u53f0App\u8fdb\u4e00\u6b65\u6269\u5927\u5728\u8def\u7f51\u4e0a\u7684\u5e94\u7528\u8303\u56f4\uff0c\u5168\u8def\u7f5119\u6761\u7ebf\u6240\u6709\u8f66\u7ad9\u5747\u5b9e\u73b0\u7ebf\u4e0a\u8d2d\u7968\u3001\u8f66\u7ad9\u53d6\u7968;\u4e0b\u4e00\u6b65\uff0c\u8ba1\u5212\u4e8e2018\u5e74\u4e00\u5b63\u5ea6\u5728\u5168\u8def\u7f51\u8303\u56f4\u5b9e\u73b0\u5237\u4e8c\u7ef4\u7801\u8fdb\u51fa\u7ad9\u3002
p153
aV\u6b64\u6b21\u5168\u8def\u7f51\u5b9e\u73b0\u7ebf\u4e0a\u8d2d\u7968\u3001\u8f66\u7ad9\u53d6\u7968\u5171\u6295\u5165708\u53f0FAM\u673a\uff0c\u6bcf\u5ea7\u8f66\u7ad9\u5e73\u5747\u81f3\u5c11\u5b89\u88c5\u4e24\u53f0FAM\u673a\u3002\u4e58\u5ba2\u901a\u8fc7\u5e73\u53f0App\u8fdb\u884c\u7ebf\u4e0a\u8d2d\u7968\uff0c\u5e76\u5728\u8f66\u7ad9\u7684\u81ea\u52a9\u552e\u7968\u673a\u9644\u8fd1\u627e\u5230FAM\u673a\uff0c\u8fdb\u884c\u626b\u7801\u53d6\u7968\uff0c\u65e8\u5728\u7f29\u77ed\u6392\u961f\u8d2d\u7968\u65f6\u95f4\uff0c\u51cf\u5c11\u4eba\u5458\u805a\u96c6\u60c5\u51b5\uff0c\u6709\u6548\u6539\u5584\u4e58\u5ba2\u51fa\u884c\u4f53\u9a8c\u3002
p154
aV\u5e73\u53f0App\u81ea2017\u5e748\u670820\u65e5\u4e0a\u7ebf\u4ee5\u6765\uff0c\u4e0b\u8f7d\u4f7f\u7528\u60c5\u51b5\u5982\u4e0b(\u622a\u81f312\u670820\u65e5)\uff1a\u5b9e\u9645\u6ce8\u518c\u91cf\u8fbe\u8d8560\u4e07\u4eba(\u5176\u4e2d\u5b89\u5353\u7cfb\u7edf\u5b9e\u9645\u6ce8\u518c\u8d8532\u4e07\u4eba\u3001\u82f9\u679cios\u7cfb\u7edf\u5b9e\u9645\u6ce8\u518c\u8d8528\u4e07\u4eba)\u3002
p155
aV\u673a\u573a\u7ebf4\u5ea7\u8f66\u7ad9FAM\u673a\u65e5\u5747\u53d6\u7968\u91cf\u4e3a529\u5f20\uff0c\u5360\u673a\u573a\u7ebf\u5355\u7a0b\u7968\u4e58\u5ba2\u76842.84%;\u65e5\u5747\u5237\u4e8c\u7ef4\u7801\u8fdb\u7ad9\u4e58\u5ba2\u8fbe866\u4eba\uff0c\u5360\u65e5\u5747\u8fdb\u7ad9\u91cf\u76842.46%\u3002;20\u5ea7\u91cd\u70b9\u8f66\u7ad9\u65e5\u5747FAM\u673a\u53d6\u7968\u91cf\u4e3a7352\u5f20\uff0c\u536020\u5ea7\u91cd\u70b9\u8f66\u7ad9\u5355\u7a0b\u7968\u4e58\u5ba2\u76843.21%\u3002
p156
asg19
V\u5317\u4eac\u5730\u94c1\uff1a2018\u5e74\u5168\u7ebf\u8def\u6216\u5b9e\u73b0\u5237\u4e8c\u7ef4\u7801\u8fdb\u51fa\u7ad9
p157
sa(dp158
g2
S'http://difang.gmw.cn/hb/2017-12/28/content_27213606.htm'
p159
sg4
V2017-12-28 15:16
p160
sg6
(lp161
V\u65b0\u534e\u793e\u6b66\u6c49\uff11\uff12\u6708\uff12\uff17\u65e5\u7535\uff08\u8bb0\u8005\u5ed6\u541b\uff09\u4ece\uff12\uff16\u65e5\u8d77\uff0c\u6b66\u6c49\u5730\u94c1\u5404\u7ebf\u8def\u3001\u5404\u8f66\u7ad9\u5f00\u901a\uff2e\uff26\uff23\u5b89\u5353\u624b\u673a\u8fc7\u95f8\u548c\u624b\u673a\u626b\u7801\u8d2d\u7968\u670d\u52a1\u3002\u8fd9\u610f\u5473\u7740\u4e58\u5ba2\u5728\u672a\u643a\u5e26\u73b0\u91d1\u7684\u60c5\u51b5\u4e0b\uff0c\u53ef\u901a\u8fc7\u79fb\u52a8\u652f\u4ed8\u4e58\u5750\u5730\u94c1\u3002
p162
aV\u6b66\u6c49\u5730\u94c1\u96c6\u56e2\u9996\u5e2d\u4e13\u5bb6\u6731\u4e1c\u98de\u4ecb\u7ecd\uff0c\u6b64\u6b21\u53d7\u60e0\u7684\u662f\u6b66\u6c49\u5730\u94c1\u5168\u7ebf\u7f51\uff0c\u5373\u8f68\u9053\u4ea4\u901a\uff11\u53f7\u7ebf\u3001\uff12\u53f7\u7ebf\u3001\uff13\u53f7\u7ebf\u3001\uff14\u53f7\u7ebf\u3001\uff16\u53f7\u7ebf\u3001\uff18\u53f7\u7ebf\u3001\u673a\u573a\u7ebf\u548c\u9633\u903b\u7ebf\u5171\uff18\u6761\u8fd0\u8425\u7ebf\u8def\uff0c\u8986\u76d6\u5168\u90e8\uff11\uff16\uff17\u4e2a\u8f66\u7ad9\u6240\u6709\u95f8\u673a\u548c\u552e\u7968\u673a\u3002
p163
aV\u636e\u4ecb\u7ecd\uff0c\u60f3\u5feb\u901f\u5237\u673a\u8fdb\u7ad9\uff0c\uff2e\uff26\uff23\u5b89\u5353\u624b\u673a\u9700\u8981\u5148\u4e0b\u8f7d\u5b89\u88c5\u201c\uff2d\uff45\uff54\uff52\uff4f\u65b0\u65f6\u4ee3\u201d\uff21\uff30\uff30\uff0c\u8fdb\u884c\u7528\u6237\u6ce8\u518c\u7ed1\u5b9a\u652f\u4ed8\u65b9\u5f0f\uff0c\u5f00\u542f\uff2e\uff26\uff23\u529f\u80fd\uff0c\u6309\u7167\u76f8\u5173\u63d0\u793a\u5b8c\u6210\u8bbe\u7f6e\u540e\uff0c\u5c31\u53ef\u5c06\u624b\u673a\u80cc\u9762\u9760\u8fd1\u95f8\u673a\uff0c\u76f4\u63a5\u4eae\u5c4f\u5237\u673a\u8fdb\u7ad9\u3002\u51fa\u7ad9\u65f6\u4e5f\u540c\u6837\u65b9\u4fbf\uff0c\u548c\u4ee5\u5f80\u4e00\u6837\u91c7\u53d6\u5148\u4e58\u8f66\u540e\u4ed8\u8d39\u7684\u65b9\u5f0f\uff0c\u6309\u666e\u901a\u5355\u7a0b\u7968\u7968\u4ef7\u6536\u53d6\u3002
p164
aV\u9700\u8981\u63d0\u9192\u7684\u662f\uff0c\u4eae\u5c4f\u8fdb\u95f8\u4e58\u5ba2\uff0c\u5982\u51fa\u7ad9\u65f6\u624b\u673a\u4e22\u5931\u6216\u624b\u673a\u65e0\u7535\uff0c\u5219\u89c6\u540c\u65e0\u7968\u5904\u7406\uff0c\u987b\u6309\u6700\u9ad8\u5355\u7a0b\u7968\u4ef7\u8865\u4ea4\u8f66\u8d39\u540e\u51fa\u95f8\u3002\u540c\u65f6\uff0c\u4e0b\u4e00\u6b21\u4f7f\u7528\u8be5\u624b\u673a\u8fc7\u95f8\u8fdb\u7ad9\u524d\uff0c\u987b\u518d\u6b21\u524d\u5f80\u5ba2\u670d\u4e2d\u5fc3\u8fdb\u884c\u6b21\u5e8f\u66f4\u65b0\u6536\u53d6\uff12\u5143\u8d39\u7528\u540e\uff0c\u65b9\u53ef\u8fdb\u7ad9\u4e58\u8f66\u3002
p165
aV\u6b66\u6c49\u5730\u94c1\u96c6\u56e2\u6709\u5173\u8d1f\u8d23\u4eba\u8bf4\uff0c\u9884\u8ba1\u660e\u5e74\u5e95\u524d\uff0c\u96c6\u56e2\u5c06\u901a\u8fc7\u5bf9\u5168\u7ebf\u7f51\u95f8\u673a\u8fdb\u884c\u786c\u4ef6\u6539\u9020\u53ca\u7cfb\u7edf\u8f6f\u4ef6\u5347\u7ea7\uff0c\u5b9e\u73b0\u624b\u673a\u626b\u7801\u76f4\u63a5\u8fc7\u95f8\u3001\u94f6\u8054\u4e91\u95ea\u4ed8\u76f4\u63a5\u8fc7\u95f8\u7b49\u3002\uff08\u5b8c\uff09
p166
asg19
V\u6b66\u6c49\u5730\u94c1\u5168\u7ebf\u53ef\u65e0\u73b0\u91d1\u8d2d\u7968
p167
sa(dp168
g2
S'http://travel.gmw.cn/2014-03/21/content_10738310.htm'
p169
sg4
V2014-03-21 11:43
p170
sg6
(lp171
V\u65b0\u4eac\u62a5\u8baf\u5317\u4eac\u5730\u94c1\u3001\u516c\u4ea4\u7968\u4ef7\u9884\u8ba1\u4eca\u5e74\u4e0b\u534a\u5e74\u8c03\u6574\u3002\u5730\u94c1\u5c06\u6539\u53d8\u5355\u4e00\u7968\u4ef7\u73b0\u72b6\uff0c\u6216\u6309\u4e58\u5750\u91cc\u7a0b\u8ba1\u7b97\u7968\u4ef7\uff0c\u62df\u8bbe\u7acb\u6708\u7968\u3001\u5b63\u7968\u7b49\u591a\u79cd\u7968\u5236\u964d\u4f4e\u4e0a\u73ed\u65cf\u901a\u52e4\u6210\u672c\u3002
p172
aV\u6628\u65e5\u4e0a\u5348\uff0c\u5728\u201c\u805a\u7126\u6539\u9769\u60c5\u7cfb\u6c11\u751f\u201d\u5f62\u52bf\u653f\u7b56\u62a5\u544a\u4f1a\u4e0a\uff0c\u5317\u4eac\u5e02\u53d1\u6539\u59d4\u526f\u4e3b\u4efb\u3001\u65b0\u95fb\u53d1\u8a00\u4eba\u8d75\u78ca\u8868\u793a\uff0c\u4e0b\u534a\u5e74\u5c06\u5bf9\u516c\u5171\u4ea4\u901a\u51fa\u884c\u7cfb\u7edf\u7684\u7968\u5236\u7968\u4ef7\u8fdb\u884c\u8c03\u6574\uff0c\u5b9e\u73b0\u516c\u4ea4\u8f66\u548c\u5730\u94c1\u201c\u591a\u5750\u591a\u4ed8\u8d39\uff0c\u5c11\u5750\u5c11\u4ed8\u8d39\u201d\uff0c\u516c\u4ea4\u8f66\u548c\u5730\u94c1\u4ef7\u683c\u8c03\u6574\u5c06\u7edf\u7b79\u8003\u8651\u3002\u4e3a\u964d\u4f4e\u6bcf\u5929\u4e58\u5750\u5730\u94c1\u7684\u4e0a\u73ed\u65cf\u7684\u8d1f\u62c5\uff0c\u7968\u4ef7\u8fdb\u884c\u8c03\u6574\u65f6\u53ef\u80fd\u4f1a\u8bbe\u7f6e\u6bd4\u8f83\u591a\u7684\u7968\u5236\u5f62\u5f0f\uff0c\u6bd4\u5982\u4e0a\u73ed\u65cf\u7ecf\u5e38\u4e58\u5750\u7684\u8def\u7ebf\u4f1a\u63a8\u51fa\u5468\u7968\u3001\u534a\u6708\u7968\u3001\u6708\u7968\u3001\u5b63\u7968\u7b49\u591a\u79cd\u5f62\u5f0f\uff0c\u907f\u514d\u4e0a\u4e0b\u73ed\u901a\u52e4\u6210\u672c\u8fc7\u9ad8\u3002
p173
aV\u8d75\u78ca\u8fd8\u8868\u793a\uff0c\u516c\u4ea4\u7968\u4ef7\u591a\u5e74\u6ca1\u53d8\uff0c\u5355\u4e00\u7968\u5236\u7ebf\u8def\u6bcf\u4e58\u6b211\u5143\uff0c\u6301\u666e\u901a\u53610.4\u5143\u3001\u5b66\u751f\u53610.2\u5143\u3002\u4e0b\u534a\u5e74\u516c\u4ea4\u7968\u8bc1\u7968\u4ef7\u6539\u9769\u4e5f\u8981\u8fdb\u884c\uff0c\u4f9d\u7136\u4f1a\u91c7\u7528\u542c\u8bc1\u4f1a\u7684\u5f62\u5f0f\u3002
p174
aV\u636e\u8d75\u78ca\u4ecb\u7ecd\uff0c\u5317\u4eac6\u5e74\u6765\u516c\u5171\u4ea4\u901a\u51fa\u884c\u7684\u5ba2\u6d41\u589e\u957f\u4e8666%\uff0c\u5df2\u7ecf\u8d85\u8fc770\u4ebf\u4eba\u6b21\uff0c\u76f8\u5f53\u4e8e\u628a\u5168\u5730\u7403\u7684\u4eba\u8fd0\u4e86\u4e00\u904d\u3002\u5176\u4e2d\uff0c\u5730\u94c130\u4ebf\u4eba\u6b21\uff0c\u5360\u56db\u6210\u591a\u3002\u4f46\u76ee\u524d\u5317\u4eac\u5730\u94c1\u7968\u4ef7\u5b58\u5728\u4e24\u4e2a\u95ee\u9898\uff0c\u4e00\u662f\u4e58\u5750\u5730\u94c1\u8ddd\u79bb\u4ece\u6700\u77ed\u7684400\u7c73\u5230\u6700\u957f\u768488\u516c\u91cc\u5168\u662f2\u5757\u94b1\uff0c\u96be\u4ee5\u4f53\u73b0\u591a\u5750\u591a\u4ed8\u8d39\u7684\u89c4\u5f8b\uff0c\u4e0d\u7b26\u5408\u516c\u5e73\u6027\u539f\u5219\u3002\u4e8c\u662f\u5317\u4eac\u4e00\u76f4\u5b9e\u884c\u4f4e\u7968\u4ef7\uff0c\u4e0e\u5176\u4ed6\u57ce\u5e02\u76f8\u6bd4\u4ef7\u683c\u660e\u663e\u504f\u4f4e\u3002
p175
aV2013\u5e74\uff0c\u5317\u4eac\u6295\u5165\u516c\u5171\u4ea4\u901a\u8fd0\u8425\u8865\u8d34103.5\u4ebf\u5143\uff0c\u901a\u8fc7\u5176\u4ed6\u79d1\u76ee\u7b49\u6e20\u9053\u5171\u6295\u516596.6\u4ebf\u5143\uff0c\u52a0\u8d77\u6765\uff0c\u5730\u9762\u516c\u4ea4\u548c\u8f68\u9053\u4ea4\u901a\u8865\u8d34\u5171\u8ba1200.1\u4ebf\u5143\u3002
p176
aV\u5317\u4eac\u4ea4\u901a\u5927\u5b66\u76f8\u5173\u62a5\u544a\u79f0\uff0c4\u53f7\u7ebf\u5e74\u6210\u672c\u7ea611.85\u4ebf\u5143
p177
aV\u6839\u636e\u9999\u6e2f\u94c1\u8def\u6709\u9650\u516c\u53f8\u5b98\u65b9\u7f51\u7ad9\u516c\u5e03\u76842013\u5e74\u5ea6\u4e1a\u7ee9\u516c\u544a\uff0c\u5317\u4eac\u4eac\u6e2f\u5730\u94c1\u8425\u8fd0\u8868\u73b0\u826f\u597d\u5e76\u8d85\u51fa\u670d\u52a1\u76ee\u6807\uff0c2012\u5e74\u76c8\u52292.52\u4ebf\u6e2f\u5143\uff0c2013\u5e74\u76c8\u52292.03\u4ebf\u6e2f\u5143\u3002
p178
aV\u76ee\u524d\uff0c\u5317\u4eac\u5730\u94c1\u516c\u53f8\u548c\u4eac\u6e2f\u5730\u94c1\u516c\u53f8\u90fd\u6ca1\u6709\u5bf9\u5916\u516c\u5e03\u8fd0\u8425\u6210\u672c\u3002\u5317\u4eac\u4ea4\u901a\u5927\u5b66\u4e2d\u56fd\u4ea4\u901a\u8fd0\u8f93\u4ef7\u683c\u7814\u7a76\u4e2d\u5fc32012\u5e74\u53d1\u8868\u7684\u300a\u57ce\u5e02\u8f68\u9053\u4ea4\u901a\u6210\u672c\u6784\u6210\u5206\u6790\u300b\uff0c\u4ee5\u5317\u4eac\u5730\u94c14\u53f7\u7ebf\u4e3a\u4f8b\uff0c\u8ba1\u7b97\u51fa4\u53f7\u7ebf\u5e74\u6210\u672c\u7ea611.85\u4ebf\u5143\u3002
p179
aV\u8be5\u62a5\u544a\u79f0\uff0c\u57ce\u5e02\u8f68\u9053\u4ea4\u901a\u7684\u6210\u672c\u6784\u6210\u5305\u62ec\u4e24\u90e8\u5206\uff1a\u5185\u90e8\u6210\u672c\u548c\u5916\u90e8\u6210\u672c\u3002\u5176\u4e2d\u5185\u90e8\u6210\u672c\u5305\u62ec\uff1a\u524d\u671f\u89c4\u5212\u8bbe\u8ba1\u6210\u672c\u3001\u5efa\u8bbe\u6210\u672c\u3001\u8fd0\u8425\u6210\u672c\u3002
p180
aV\u8be5\u62a5\u544a\u63d0\u4f9b\u7684\u6570\u636e\u663e\u793a\uff0c\u5730\u94c14\u53f7\u7ebf\u524d\u671f\u89c4\u5212\u8bbe\u8ba1\u6210\u672c\u7ea6\u4e3a3\u4ebf\u5143\uff0c\u8fd9\u7b14\u8d39\u7528\u4e3a\u8d22\u653f\u6295\u5165\u3002
p181
aV\u5efa\u8bbe\u6210\u672c\uff0c\u7ea6\u4e3a153\u4ebf\u5143\uff0c\u5305\u62ec\u524d\u671f\u51c6\u5907\u3001\u5f81\u5730\u62c6\u8fc1\u3001\u571f\u5efa\u3001\u8f66\u8f86\u3001\u4fe1\u53f7\u3001\u8bbe\u5907\u7b49\u3002\u5176\u4e2d\uff0c\u5f81\u5730\u62c6\u8fc1\u6bcf\u516c\u91cc\u7684\u6210\u672c\u7ea6\u4e3a4608\u4e07\u5143\uff0c\u603b\u6210\u672c\u7ea6\u4e3a12.9\u4ebf\u5143\u3002
p182
aV\u7531\u4e8e\u4eac\u6e2f\u516c\u53f8\u6ca1\u6709\u516c\u5e03\u5177\u4f53\u7684\u8fd0\u8425\u6210\u672c\uff0c\u8be5\u62a5\u544a\u5728\u65e2\u6709\u8d44\u6599\u57fa\u7840\u4e0a\uff0c\u8003\u8651\u5317\u4eac\u5e02\u4eba\u5747\u5de5\u8d44\u73af\u6bd4\u589e\u957f\u7387\u3001\u8d44\u4ea7\u6298\u65e7\u7387\u3001\u8d37\u6b3e\u5229\u7387\u7b49\u8fdb\u884c\u7684\u63a8\u7b97\uff0c\u5f97\u51fa30\u5e74\u8fd0\u8425\u6210\u672c\u7ea6\u4e3a185.8\u4ebf\u5143\u30024\u53f7\u7ebf\u5e74\u8fd0\u8425\u6210\u672c\u5177\u4f53\u5305\u62ec\uff1a\u5de5\u8d44\u53ca\u6cd5\u5b9a\u8d39\u7528+\u4fee\u7406\u8d39+\u7535\u529b\u8d39+\u8425\u8fd0\u8d39+\u6298\u65e7\u8d39+\u79df\u91d1+\u7ba1\u7406\u8d39\u7528+\u8d22\u52a1\u8d39\u7528+\u8425\u4e1a\u7a0e\u91d1\u53ca\u9644\u52a0\uff08\u8d22\u52a1\u8d39\u7528\u7531\u8d37\u6b3e\u7b49\u4ea7\u751f\uff09\u3002
p183
aV\u5916\u90e8\u6210\u672c30\u5e74\u517113.7\u4ebf\u5143
p184
aV\u8be5\u62a5\u544a\u79f0\uff0c\u5916\u90e8\u6210\u672c\u5219\u6307\uff0c\u4ea4\u901a\u8fd0\u8f93\u7684\u53d1\u5c55\u5e26\u6765\u7684\u4ea4\u901a\u4e8b\u6545\u3001\u566a\u58f0\u3001\u7a7a\u6c14\u6c61\u67d3\u7b49\u56e0\u7d20\u4ea7\u751f\u7684\u6210\u672c\u8d39\u7528\u3002\u968f\u77404\u53f7\u7ebf\u5ba2\u8fd0\u91cf\u7684\u9010\u5e74\u589e\u52a0\uff0c\u5176\u6240\u9020\u6210\u7684\u5916\u90e8\u6210\u672c\u4e5f\u5c06\u9010\u5e74\u589e\u52a0\uff0c\u52302039\u5e74\u5c06\u8fbe\u52304974\u4e07\u5143\uff0c30\u5e74\u4e00\u5171\u5c06\u8fbe\u523013.7\u4ebf\u5143\u3002
p185
aV\u6839\u636e\u4ee5\u4e0a\u6570\u636e\uff0c\u5317\u4eac\u5730\u94c14\u53f7\u7ebf\u572830\u5e74\u7684\u79df\u8d41\u671f\u5185\uff0c\u524d\u671f\u89c4\u5212\u8bbe\u8ba1\u6210\u672c\u4e3a3\u4ebf\u5143\uff0c\u5efa\u8bbe\u6210\u672c153\u4ebf\u5143\uff0c\u8fd0\u8425\u6210\u672c185.8\u4ebf\u5143\uff0c\u5916\u90e8\u6210\u672c13.7\u4ebf\u5143\uff0c\u603b\u6210\u672c\u4e3a355.5\u4ebf\u5143\uff0c\u5e73\u5747\u5230\u6bcf\u4e00\u5e74\u7ea6\u4e3a11.85\u4ebf\u5143\u3002
p186
asg19
V\u5317\u4eac\u516c\u4ea4\u5730\u94c1\u7968\u4ef7\u5c06\u8c03\u6574\u5730\u94c1\u6216\u6309\u91cc\u7a0b\u8ba1\u4ef7
p187
sa(dp188
g2
S'http://travel.gmw.cn/2014-12/11/content_14141763.htm'
p189
sg4
V2014-12-11 18:20
p190
sg6
(lp191
V\u6628\u5929\uff0810\u65e5\uff09\u51cc\u6668\u5730\u94c1\u8fd0\u8425\u4f01\u4e1a\u5b98\u7f51\u53ef\u67e5\u8be2\u5730\u94c1\u65b0\u7968\u4ef7\u3002\u636e\u4ecb\u7ecd\uff0c\u7968\u4ef7\u6309\u7167\u4e24\u7ad9\u6700\u77ed\u8ddd\u79bb\u8ba1\u7b97\uff0c\u5317\u4eac\u5730\u94c1\u5b98\u7f51\u53ef\u4ee5\u901a\u8fc7\u8f83\u5feb\u6377\u548c\u5c11\u6362\u4e58\u4e24\u79cd\u4e58\u5750\u65b9\u5f0f\u67e5\u8be2\uff1b\u4eac\u6e2f\u5730\u94c1\u5b98\u7f51\u53ef\u4ee5\u67e5\u8be2\u5168\u8def\u7f51\uff0c\u5305\u62ec\u5e74\u5e95\u5f00\u901a\u76844\u6761\u65b0\u7ebf\u7684\u7968\u4ef7\u3002\u622a\u81f3\u6628\u5929\u665a\u4e0a20\u70b910\u5206\uff0c22\u4e07\u4eba\u6b21\u5728\u5317\u4eac\u5730\u94c1\u5b98\u7f51\u67e5\u8be2\u65b0\u7968\u4ef7\u3002
p192
aV\u6628\u5929\u51cc\u6668\u8fd0\u8425\u4f01\u4e1a\u5b98\u7f51\u53ef\u67e5\u8be2\u7968\u4ef7\uff0c\u622a\u81f3\u6628\u5929\u665a\u4e0a20\u70b910\u5206\uff0c\u4e00\u5171\u670922\u4e07\u4eba\u6b21\u767b\u5f55\u5317\u4eac\u5730\u94c1\u5b98\u7f51\u67e5\u8be2\u65b0\u7968\u4ef7\u3002\u7531\u4e8e\u6fc0\u589e\u7684\u6d41\u91cf\uff0c\u4e58\u5ba2\u767b\u5f55\u67e5\u8be2\u7968\u4ef7\u6709\u70b9\u8d39\u52b2\uff0c\u7ecf\u5e38\u4f1a\u5148\u663e\u793a0\u5143\uff0c\u7136\u540e\u624d\u4f1a\u7f13\u6162\u663e\u793a\u51fa\u5b9e\u9645\u7684\u7968\u4ef7\u3002\u76f4\u5230\u5de5\u4f5c\u65e5\u4e0b\u73ed\u65f6\u95f4\uff0c\u67e5\u8be2\u901f\u5ea6\u624d\u6709\u660e\u663e\u597d\u8f6c\u3002
p193
aV\u5317\u4eac\u9752\u5e74\u62a5\u8bb0\u8005\u767b\u5f55\u5317\u4eac\u5730\u94c1\u5b98\u7f51\u53d1\u73b0\uff0c\u5728\u7ebf\u8def\u56fe\u67e5\u8be2\u8f93\u5165\u8d77\u59cb\u7ad9\u70b9\u51fb\u641c\u7d22\u5c31\u53ef\u4ee5\u5f97\u5230\u4e58\u5750\u7684\u5177\u4f53\u4fe1\u606f\uff0c\u5305\u62ec\u4e58\u5750\u7684\u7ad9\u6570\u3001\u6362\u4e58\u65b9\u6848\u3001\u9884\u8ba1\u65f6\u95f4\u548c\u7968\u4ef7\u3002\u4ee5\u547c\u5bb6\u697c\u5230\u4e94\u68f5\u677e\u4e3a\u4f8b\uff0c\u9009\u62e9\u8f83\u5feb\u6377\u65b9\u5f0f\uff0c\u5219\u4ece6\u53f7\u7ebf\u547c\u5bb6\u697c\u4e0a\u8f66\uff0c\u5728\u671d\u9633\u95e8\u6362\u4e582\u53f7\u7ebf\uff0c\u518d\u5728\u5efa\u56fd\u95e8\u6362\u4e581\u53f7\u7ebf\uff0c\u9884\u8ba1\u7528\u65f637\u5206\u949f\uff1b\u9009\u62e9\u5c11\u6362\u4e58\u65b9\u5f0f\uff0c\u5219\u4ece10\u53f7\u7ebf\u547c\u5bb6\u697c\u4e0a\u8f66\uff0c\u5728\u56fd\u8d38\u6362\u4e581\u53f7\u7ebf\uff0c\u7528\u65f638\u5206\u949f\u3002\u4e24\u79cd\u4e58\u5750\u65b9\u5f0f\u90fd\u6309\u7167\u6700\u77ed\u8ddd\u79bb\u8ba1\u7b97\uff0c\u90fd\u662f5\u5143\u94b1\u3002
p194
aV\u5730\u94c1\u7968\u4ef728\u65e5\u8c03\u6574\u540e\uff1a6\u516c\u91cc(\u542b)\u51853\u5143\uff1b6\u516c\u91cc\u81f312\u516c\u91cc(\u542b)4\u5143\uff1b12\u516c\u91cc\u81f322\u516c\u91cc(\u542b)5\u5143\uff1b22\u516c\u91cc\u81f332\u516c\u91cc(\u542b)6\u5143\uff1b32\u516c\u91cc\u4ee5\u4e0a\u90e8\u5206\uff0c\u6bcf\u589e\u52a01\u5143\u53ef\u4e58\u575020\u516c\u91cc\u3002
p195
aV\u76ee\u524d\uff0c\u8fd0\u8425\u4f01\u4e1a\u5b98\u7f51\u67e5\u8be2\u7ed3\u679c\u4e0d\u80fd\u663e\u793a\u4e58\u5750\u7684\u516c\u91cc\u6570\uff0c\u53ea\u80fd\u663e\u793a\u4e0d\u540c\u516c\u91cc\u6570\u5bf9\u5e94\u7684\u533a\u95f4\u4ef7\u683c\u3002\u5e02\u4ea4\u901a\u59d4\u8868\u793a\uff0c\u572812\u670828\u65e5\u65b0\u7968\u4ef7\u6267\u884c\u4e4b\u65e5\uff0c\u6240\u6709\u5730\u94c1\u7684\u552e\u7968\u5904\u3001\u8fdb\u51fa\u7ad9\u53e3\u7b49\u660e\u663e\u4f4d\u7f6e\uff0c\u90fd\u5c06\u8d34\u51fa\u201c\u4e00\u56fe\u4e00\u8868\u201d\u7684\u4ef7\u76ee\u8868\uff0c\u4e58\u5ba2\u53ef\u6e05\u695a\u5730\u4ece\u4e2d\u67e5\u5230\u4ece\u8be5\u7ad9\u5230\u4efb\u4e00\u76ee\u7684\u5730\u7684\u8f66\u7968\u4ef7\u683c\u3002
p196
aV\u636e\u4e86\u89e3\uff0c\u5e74\u5e95\u5f00\u901a\u76844\u6761\u65b0\u7ebf\u5c06\u7eb3\u5165\u65b0\u7968\u4ef7\u7ba1\u7406\u3002\u4eac\u6e2f\u5730\u94c1\u53ef\u4ee5\u901a\u8fc7\u94fe\u63a5\u67e5\u8be2\u5230\u5305\u62ec4\u6761\u65b0\u7ebf\u7684\u6240\u6709\u8def\u7f51\u7968\u4ef7\u3002
p197
aV\u5317\u9752\u62a5\u8bb0\u8005\u767b\u5f55\u53d1\u73b0\uff0c\u4eac\u6e2f\u5730\u94c1\u7f51\u9875\u53ef\u4ee5\u67e5\u8be2\u5230\u9a6c\u4e0a\u5f00\u901a\u7684\u5730\u94c1\u65b0\u7ebf\u7684\u67d0\u7ad9\u5230\u8fbe\u8def\u7f51\u4efb\u610f\u4e00\u7ad9\u7684\u8ddd\u79bb\u3002
p198
aV\u4ee5\u65b0\u5f00\u901a\u76847\u53f7\u7ebf\u767e\u5b50\u6e7e\u4e3a\u4f8b\uff0c\u5230\u8fbe\u5317\u4eac\u7ad9\u3001\u5317\u4eac\u5357\u7ad9\u3001\u5317\u4eac\u897f\u7ad9\u7684\u4ef7\u683c\u5206\u522b\u4e3a4\u5143\u30015\u5143\u548c5\u5143\u3002
p199
aV\u4eac\u6e2f\u5730\u94c1\u53ef\u8fdb\u884c\u201c\u6a21\u7cca\u201d\u67e5\u8be2
p200
aV\u76ee\u524d\uff0c\u5728\u4eac\u6e2f\u5730\u94c1\u7684\u67e5\u8be2\u754c\u9762\u4e0a\uff0c\u53ef\u4ee5\u8fdb\u884c\u201c\u6a21\u7cca\u201d\u67e5\u8be2\u3002\u5982\u679c\u4e58\u5ba2\u4e0d\u77e5\u9053\u5730\u94c1\u7ad9\u5177\u4f53\u53eb\u4ec0\u4e48\uff0c\u8f93\u5165\u201c\u5317\u201d\uff0c\u53ef\u4ee5\u5f39\u51fa\u5317\u6c99\u6ee9\u3001\u5317\u571f\u57ce\u3001\u5317\u65b0\u6865\u7b49\u591a\u4e2a\u5730\u94c1\u7ad9\u4f9b\u9009\u62e9\u3002\u672a\u6765\uff0c\u77e5\u9053\u76ee\u7684\u5730\u548c\u77e5\u9053\u5b9e\u9645\u7684\u7968\u4ef7\uff0c\u4e24\u79cd\u65b9\u5f0f\u90fd\u53ef\u4ee5\u8d2d\u4e70\u8f66\u7968\u3002\u5317\u4eac\u5730\u94c1\u5b98\u65b9\u6682\u65f6\u4e0d\u80fd\u63d0\u4f9b\u201c\u6a21\u7cca\u201d\u67e5\u8be2\u3002
p201
aV\u636e\u5317\u4eac\u5730\u94c1\u516c\u53f8\u4ecb\u7ecd\uff0c\u5176\u6240\u8f9611\u6761\u7ebf\u8def(5\u53f7\u7ebf\u30016\u53f7\u7ebf\u30017\u53f7\u7ebf\u30018\u53f7\u7ebf\u30019\u53f7\u7ebf\u300110\u53f7\u7ebf\u300113\u53f7\u7ebf\u300115\u53f7\u7ebf\u3001\u660c\u5e73\u7ebf\u3001\u623f\u5c71\u7ebf\u3001\u4ea6\u5e84\u7ebf)\u5168\u90e8\u81ea\u52a8\u552e\u7968\u673a\u8f6f\u4ef6\u5df2\u5347\u7ea7\u5b8c\u6bd5\uff0c\u64cd\u4f5c\u754c\u9762\u4e5f\u5df2\u76f8\u5e94\u5168\u90e8\u66f4\u65b0\uff0c\u66f4\u65b0\u540e\u7684\u81ea\u52a8\u552e\u7968\u673a\u53ef\u901a\u8fc7\u70b9\u9009\u76ee\u7684\u7ad9\u3001\u7968\u4ef7\u3001\u5f20\u6570\u81ea\u52a8\u53d1\u552e\u5730\u94c1\u8f66\u7968\u3002
p202
aV\u5317\u9752\u62a5\u8bb0\u8005\u5728\u547c\u5bb6\u697c\u7ad9\u3001\u89d2\u95e8\u897f\u7ad9\u7b49\u591a\u4e2a\u5730\u94c1\u7ad9\u770b\u5230\uff0c\u81ea\u52a8\u552e\u7968\u673a\u4e0a\u65b0\u7684\u754c\u9762\u4e0a\u65b9\u8bbe\u7f6e\u4e86\u7ebf\u8def\u9009\u62e9\u6309\u94ae\uff0c\u9009\u62e9\u7ebf\u8def\u6309\u94ae\u589e\u52a0\u4e867\u53f7\u7ebf\uff0c\u754c\u9762\u53f3\u4fa7\u589e\u52a0\u4e86\u9009\u62e9\u7968\u4ef7\u6309\u94ae\uff0c\u53ef\u76f4\u63a5\u70b9\u9009\u7968\u4ef7\uff1b\u754c\u9762\u4e2d\u592e\u7ebf\u8def\u56fe\u91c7\u7528\u4e86\u65b0\u7684\u5730\u94c1\u7ebf\u8def\u56fe\uff0c\u589e\u52a0\u4e867\u53f7\u7ebf\u300115\u53f7\u7ebf\u4e00\u671f\u897f\u6bb5\u30016\u53f7\u7ebf\u4e8c\u671f\u300114\u53f7\u7ebf\u4e1c\u6bb5\uff0c\u5bf9\u6682\u672a\u5f00\u901a\u7684\u8f66\u7ad9\u6807\u6ce8\u4e3a\u201c\u6682\u7f13\u5f00\u901a\u201d\u3002
p203
aV\u5b89\u68c0\u533a\u57df\u533a\u5206\u5355\u7a0b\u7968\u548c\u4e00\u5361\u901a\u6301\u7968\u4e58\u5ba2
p204
aV\u636e\u5730\u94c113\u53f7\u7ebf\u897f\u76f4\u95e8\u7ad9\u533a\u4ecb\u7ecd\uff0c\u4e3a\u914d\u5408\u8def\u7f51\u4e92\u8054\u4e92\u901a\u6d4b\u8bd5\uff0c\u7ad9\u533a\u6309\u7167\u65e2\u6709\u7ebf\u4e92\u8054\u4e92\u901a\u6d4b\u8bd5\u8981\u6c42\uff0c\u7ec4\u7ec7\u5b89\u6392\u4e13\u4eba\u53c2\u4e0e118\u4e2a\u8f66\u7ad9\u7684\u8054\u7f51\u6d4b\u8bd5\u5de5\u4f5c\u3002\u5458\u5de5\u5b8c\u6210\u8986\u76d6\u8def\u7f51\u8f66\u7ad9\u7684\u4e0d\u540c\u7968\u4ef7\u7684\u4e00\u7968\u901a\u51fa\u7ad9\u3001\u4e00\u5361\u901a\u51fa\u7ad9\u3001\u8865\u7968\u64cd\u4f5c\u3002\u5728\u5b89\u68c0\u533a\u57df\u8fd8\u5c06\u533a\u5206\u6301\u4e00\u5361\u901a\u4e58\u5ba2\u901a\u9053\u548c\u8d2d\u4e70\u5355\u7a0b\u7968\u4e58\u5ba2\u901a\u9053\uff0c\u65b9\u4fbf\u4e58\u5ba2\u8fdb\u7ad9\u3002
p205
aV\u622a\u81f312\u67089\u65e5\uff0c\u5317\u4eac\u5730\u94c1\u516c\u53f8\u5df2\u5b8c\u621011\u6761\u7ebf\u8def\u5171\u8ba1188\u4e2a\u8f66\u7ad9\u7684AFC\u7cfb\u7edf\u7ec8\u7aef\u8bbe\u5907(\u81ea\u52a8\u552e\u3001\u68c0\u7968\u673a\uff0c\u534a\u81ea\u52a8\u552e\u7968\u673a\uff0c\u67e5\u8be2\u673a)\u8f6f\u4ef6\u5347\u7ea7\u5de5\u4f5c\uff0c1\u53f7\u7ebf\u30012\u53f7\u7ebf\u7684\u8f6f\u4ef6\u5347\u7ea7\u5de5\u4f5c\u9884\u8ba1\u4e8e12\u670811\u65e5\u5b8c\u6210\u3002(\u673a\u573a\u7ebf\u4e0d\u5728\u6b64\u6b21\u516c\u4ea4\u7968\u4ef7\u8c03\u6574\u8303\u56f4\u5185)\u53e6\u636e\u4eac\u6e2f\u5730\u94c1\u516c\u53f8\u6d88\u606f\uff0c\u4eac\u6e2f\u5730\u94c1\u6240\u8f963\u6761\u7ebf\u8def(\u5730\u94c14\u53f7\u7ebf\u3001\u5927\u5174\u7ebf\u53ca14\u53f7\u7ebf)\u5168\u90e8\u81ea\u52a8\u552e\u68c0\u7968\u7cfb\u7edf\u5df2\u5347\u7ea7\u5b8c\u6bd5\u3002\u5168\u8def\u7f51\u4e92\u8054\u4e92\u901a\u6d4b\u8bd5\u5de5\u4f5c\u4e5f\u5df2\u8fdb\u5165\u65e2\u6709\u7ebf\u8def\u95f4\u7684\u6d4b\u8bd5\u9636\u6bb5\uff0c\u540e\u7eed\u8fd8\u5c06\u8fdb\u884c\u65b0\u7ebf\u8def\u95f4\u4ee5\u53ca\u65e2\u6709\u8def\u7ebf\u4e0e\u65b0\u7ebf\u8def\u95f4\u7684\u6d4b\u8bd5\u5de5\u4f5c\uff0c\u9884\u8ba1\u603b\u6d4b\u8bd5\u65f6\u95f4\u4e3a100\u5c0f\u65f6\u3002
p206
aV\u636e\u5e02\u4ea4\u901a\u59d4\u8fd0\u8f93\u7ba1\u7406\u5c40\u6d88\u606f\uff0c\u4e3a\u63a8\u8fdb\u672c\u5e02\u57ce\u4e61\u516c\u4ea4\u5ba2\u8fd0\u4e00\u4f53\u5316\uff0c\u81ea\u672c\u670828\u65e5\u8d77\uff0c\u8fdc\u90ca\u533a\u53bf\u5185\u516c\u4ea4\u5ba2\u8fd0(\u5982\u660c31\u8def\u3001\u901a14\u8def\u7b49)\u5c06\u53c2\u7167\u5e02\u533a\u516c\u4ea4\u7968\u4ef7\u6539\u9769\u529e\u6cd5\uff0c\u7531\u533a\u53bf\u653f\u5e9c\u7ec4\u7ec7\u540c\u6b65\u5b9e\u65bd\u3002\u672c\u5e02\u90ca\u533a\u53bf\u4e58\u5ba2\u5c06\u4eab\u53d7\u4e0e\u5e02\u533a\u516c\u4ea4\u540c\u7b49\u7684\u7968\u5236\u7968\u4ef7\u548c\u4f18\u60e0\u653f\u7b56\u3002
p207
asg19
V\u5317\u4eac\u5730\u94c1\u65b0\u7968\u4ef7\u67e5\u8be2\u9996\u65e5\u9047\u5835\u8d8520\u4e07\u4eba\u67e5\u8be2\u7968\u4ef7
p208
sa(dp209
g2
S'http://travel.gmw.cn/2014-12/05/content_14074087.htm'
p210
sg4
V2014-12-05 20:12
p211
sg6
(lp212
V12\u67081\u65e5\uff0c\u8bb0\u8005\u4ece\u5317\u4eac\u5e02\u4ea4\u901a\u59d4\u83b7\u6089\uff0c12\u670820\u65e5\u524d\uff0c\u8f68\u9053\u4ea4\u901a\u9884\u8ba1\u5b8c\u6210\u8bbe\u5907\u8f6f\u786c\u4ef6\u66f4\u65b0\u5347\u7ea7\u3001\u6d4b\u8bd5\u5de5\u4f5c,\u786e\u4fdd27\u65e5\u524d\u5177\u5907\u7cfb\u7edf\u5bfc\u5207\u6761\u4ef6\u3002\u53e6\u5916\uff0c\u6bcf\u5ea7\u8f66\u7ad9\u51fa\u5165\u53e3\u3001\u7ad9\u5385\u3001\u901a\u9053\u3001\u552e\u7968\u5904\uff08\u6216\u552e\u7968\u7cfb\u7edf\uff09\u5c06\u589e\u52a0\u9192\u76ee\u7684\u8ba1\u7a0b\u5236\u7968\u4ef7\u56fe\u8868\u3001\u8d2d\u7968\u6d41\u7a0b\u548c\u7968\u52a1\u653f\u7b56\uff0c\u5730\u9762\u516c\u4ea4\u7684\u8ba1\u4ef7\u516c\u91cc\u8868\u548c\u90e8\u5206\u5237\u5361\u673a\u4e5f\u5c06\u66f4\u6362\u3002
p213
aV\u8fd1\u65e5\uff0c\u4e58\u5ba2\u5728\u5357\u793c\u58eb\u8def\u4ee5\u53ca\u5176\u4ed6\u7ad9\u70b9\u67e5\u770b\u5730\u94c1\u552e\u7968\u7cfb\u7edf\u65f6\u4f1a\u53d1\u73b0\uff0c\u4e00\u4e9b\u552e\u7968\u673a\u867d\u7136\u6682\u4e0d\u80fd\u8d2d\u7968\uff0c\u4f46\u80fd\u5b9e\u73b0\u65b0\u7968\u5236\u7684\u67e5\u8be2\u529f\u80fd\uff0c\u8fd9\u4e9b\u673a\u5668\u662f\u7528\u4e8e\u5730\u94c1\u552e\u7968\u5458\u4ee5\u53ca\u4e58\u52a1\u4eba\u5458\u7684\u57f9\u8bad\u3002
p214
aV\u65b0\u7968\u5236\u5c06\u572812\u670828\u65e5\u8d77\u5b9e\u65bd\uff0c\u5e02\u4ea4\u901a\u59d4\u8868\u793a\uff0c\u8f68\u9053\u4ea4\u901a\u9884\u8ba112\u670810\u65e5\u524d\u5b8c\u6210\u7b2c\u4e09\u65b9\u81ea\u52a8\u552e\u68c0\u7968\u7cfb\u7edf\u98ce\u9669\u8bc4\u4f30\u5de5\u4f5c\uff0c20\u65e5\u524d\uff0c\u5b8c\u6210\u8bbe\u5907\u8f6f\u4ef6\u786c\u4ef6\u66f4\u65b0\u5347\u7ea7\u3001\u6d4b\u8bd5\u5de5\u4f5c\u3002
p215
aV\u8bb0\u8005\u4ece\u5730\u94c1\u90e8\u95e8\u4e86\u89e3\u5230\uff0c\u65b0\u552e\u7968\u673a\u8f93\u5165\u7ad9\u70b9\u524d\u4e24\u4e2a\u5b57\u6bcd\u62fc\u97f3\u7f29\u5199\uff0c\u7cfb\u7edf\u4f1a\u5f39\u51fa\u8be5\u7ad9\u70b9\uff0c\u70b9\u51fb\u786e\u8ba4\u540e\uff0c\u4f1a\u663e\u793a\u4ece\u4e58\u5ba2\u6240\u5728\u7ad9\u5230\u76ee\u7684\u7ad9\u7684\u7968\u4ef7\u3002\u53e6\u5916\uff0c\u4e58\u5ba2\u51fa\u7ad9\u9047\u5230\u7968\u989d\u4e0d\u8db3\u65f6\uff0c\u8865\u7968\u65f6\u53ea\u8981\u5237\u4e0b\u5361\uff0c\u7cfb\u7edf\u4f1a\u63d0\u793a\u8fdb\u7ad9\u5730\uff0c\u540e\u53f0\u6838\u7b97\u91cc\u7a0b\u540e\uff0c\u4f1a\u81ea\u52a8\u5f39\u51fa\u9700\u8981\u8865\u7968\u7684\u91d1\u989d\uff0c\u65e0\u9700\u4eba\u5de5\u8ba1\u7b97\u3002
p216
aV\u636e\u4e86\u89e3\uff0c\u4e3a\u4e86\u89e3\u51b3\u5b9e\u884c\u8ba1\u7a0b\u5236\u7968\u4ef7\u540e\u53ef\u80fd\u4ea7\u751f\u552e\u7968\u3001\u68c0\u7968\u3001\u8865\u7968\u4ee5\u53ca\u67e5\u5835\u8fdd\u89c4\u9003\u7968\u7b49\u95ee\u9898\uff0c\u5730\u94c1\u8fd0\u8425\u65b9\u5c06\u589e\u52a03600\u540d\u7ad9\u52a1\u4eba\u5458\uff0c\u505a\u597d\u73b0\u573a\u5e94\u6025\u5e94\u5bf9\u3002\u53e6\u5916\uff0c\u5728\u6bcf\u5ea7\u8f66\u7ad9\u51fa\u5165\u53e3\u3001\u7ad9\u5385\u3001\u901a\u9053\u3001\u552e\u7968\u5904(\u6216\u552e\u7968\u7cfb\u7edf)\u589e\u52a0\u9192\u76ee\u7684\u8ba1\u7a0b\u5236\u7968\u4ef7\u56fe\u8868\u3001\u8d2d\u7968\u6d41\u7a0b\u548c\u7968\u52a1\u653f\u7b56\u3002
p217
aV\u5e02\u4ea4\u901a\u59d4\u9884\u8ba1\uff0c\u7968\u6539\u5b9e\u65bd\u540e\uff0c\u8f68\u9053\u4ea4\u901a\u5c40\u90e8\u65b9\u5411\u7684\u5ba2\u6d41\u6709\u53ef\u80fd\u5411\u5730\u9762\u516c\u4ea4\u8f6c\u79fb\uff0c\u516c\u4ea4\u3001\u5730\u94c1\u8fd0\u8425\u65b9\u5c06\u4f1a\u6839\u636e\u76d1\u6d4b\u5230\u7684\u5ba2\u6d41\u53d8\u5316\uff0c\u63d0\u524d\u505a\u589e\u52a0\u8fd0\u529b\u548c\u8f66\u8f86\u7684\u51c6\u5907\u3002
p218
aV\u5e74\u5e95\uff0c\u672c\u5e02\u5c06\u518d\u589e4\u6761\u8f68\u9053\u4ea4\u901a\u65b0\u7ebf\uff0c\u5c4a\u65f6\u5c06\u6709746\u6761\u516c\u4ea4\u7ebf\u8def\u4e0e\u5176\u63a5\u9a73\u3002\u516c\u4ea4\u96c6\u56e2\u5c06\u8fdb\u4e00\u6b65\u4f18\u5316\u8c03\u6574\u516c\u4ea4\u7ad9\u4f4d\uff0c\u63d0\u9ad8\u6362\u4e58\u6548\u7387\u3002
p219
aV\u9488\u5bf9\u7968\u6539\uff0c\u5730\u9762\u516c\u4ea4\u9884\u8ba1\u65b0\u589e\u3001\u66f4\u65b0\u8001\u65e7\u5237\u5361\u673a\u51774.5\u4e07\u53f0\uff0c\u66f4\u6362\u6807\u5fd7\u6807\u8bc618\u4e07\u5f20\u3001\u513f\u7ae5\u9650\u9ad8\u6807\u5fd72.6\u4e07\u4e2a\u30021200\u6761\u516c\u4ea4\u7ebf\u8def\u7684\u8ba1\u4ef7\u516c\u91cc\u8868\u4e5f\u5c06\u91cd\u65b0\u66f4\u6362\u3002\u5e02\u4ea4\u901a\u59d4\u8868\u793a\uff0c\u6269\u5927\u6e05\u6d01\u80fd\u6e90\u516c\u4ea4\u8f66\u7684\u5e94\u7528\uff0c\u5e74\u5e95\u524d\u66f4\u65b03009\u8f86\u65b0\u80fd\u6e90\u548c\u6e05\u6d01\u80fd\u6e90\u516c\u4ea4\u8f66\u3002(\u8bb0\u8005\u9ec4\u6d77\u857e)
p220
asg19
V\u5317\u4eac\u5730\u94c120\u65e5\u524d\u5b8c\u6210\u7cfb\u7edf\u8c03\u8bd5\u5c06\u7c98\u8d34\u65b0\u7968\u4ef7\u56fe\u8868
p221
sa(dp222
g2
S'http://travel.gmw.cn/2014-07/07/content_11860053.htm'
p223
sg4
V2014-07-07 08:53
p224
sg6
(lp225
V\u8fd1\u65e5\uff0c\u5317\u4eac\u5e02\u53d1\u6539\u59d4\u5ba3\u5e03\uff0c\u5c06\u4e8e7\u67083\u65e5\u81f320\u65e5\uff0c\u5c31\u5317\u4eac\u516c\u5171\u4ea4\u901a\u7968\u4ef7\u6539\u9769\u95ee\u9898\uff0c\u9762\u5411\u793e\u4f1a\u516c\u5f00\u5f81\u96c6\u610f\u89c1\u5efa\u8bae\u3002\u622a\u81f37\u67086\u65e517\u65f6\uff0c\u5317\u4eac\u5e02\u53d1\u6539\u59d4\u5b98\u7f51\u4e0a\u5171\u516c\u5e03\u4e86293\u6761\u5e02\u6c11\u5efa\u8bae\u3002\u4e2d\u56fd\u9752\u5e74\u62a5\u8bb0\u8005\u68b3\u7406\u53d1\u73b0\uff0c\u7ea6\u516d\u6210\u5e02\u6c11\u5bf9\u8c03\u4ef7\u8868\u793a\u7406\u89e3\u548c\u652f\u6301\uff0c\u4f46\u5e0c\u671b\u8c03\u6574\u5e45\u5ea6\u4e0d\u8981\u592a\u5927\u3002
p226
aV\u610f\u89c1\u5f81\u96c6\u6d3b\u52a8\u7684\u5f00\u542f\uff0c\u4e5f\u610f\u5473\u7740\u5317\u4eac\u201c\u5ec9\u4ef7\u516c\u5171\u4ea4\u901a\u201d\u65f6\u4ee3\u6216\u5c06\u7ed3\u675f\u3002
p227
aV\u201c\u6211\u4ece\u9ad8\u7891\u5e97\u5230\u5317\u4eac\u897f\u7ad9\uff0c\u5f97\u4e70\u591a\u5c11\u94b1\u7684\u7968?\u201d\u8d2d\u7968\u5904\uff0c\u4e00\u4f4d40\u591a\u5c81\u7684\u7537\u5b50\u62d6\u7740\u884c\u674e\u7bb1\u5411\u5de5\u4f5c\u4eba\u5458\u8be2\u95ee\u3002\u201c\u5730\u94c1\u4e0d\u7ba1\u5750\u591a\u8fdc\uff0c\u4e00\u5f8b\u90fd\u662f\u4e24\u5143\u3002\u201d\u5de5\u4f5c\u4eba\u5458\u8fb9\u8bf4\u7740\uff0c\u8fb9\u4ece\u7a97\u53e3\u9012\u51fa\u4e00\u5f20\u5355\u7a0b\u7968\u3002
p228
aV\u4e2d\u56fd\u9752\u5e74\u62a5\u8bb0\u8005\u4ece\u5317\u4eac\u5e02\u53d1\u6539\u59d4\u4e86\u89e3\u5230\uff0c\u76ee\u524d\uff0c\u5317\u4eac\u5e02\u516c\u5171\u4ea4\u901a\u4e3b\u8981\u5b9e\u884c\u5355\u4e00\u7968\u5236\u3002\u8be5\u7968\u5236\u59cb\u4e8e2007\u5e74\uff0c\u5f53\u65f6\u6539\u9769\u7684\u6838\u5fc3\u5185\u5bb9\uff0c\u4e00\u662f\u5927\u5e45\u5ea6\u964d\u4f4e\u7968\u4ef7\uff0c\u4e8c\u662f\u63a8\u5e7f\u4f7f\u7528\u4e00\u5361\u901a\u3002\u6b64\u540e\uff0c\u5e02\u533a\u5730\u9762\u516c\u4ea465%\u5de6\u53f3\u7684\u7ebf\u8def\u90fd\u6267\u884c\u6bcf\u4eba\u6b211\u5143\u7968\u4ef7\uff0c\u5e76\u5b9e\u884c\u5b66\u751f\u5237\u5361\u4e24\u6298\u3001\u6210\u4eba4\u6298\u4f18\u60e0\u3002\u5730\u94c1\u5219\u662f\u5168\u8def\u7f51\u6bcf\u4eba\u6b21\u4e24\u5143\u3002
p229
aV\u201c\u4f46\u968f\u7740\u516c\u5171\u4ea4\u901a\u8def\u7f51\u89c4\u6a21\u3001\u5ba2\u6d41\u603b\u91cf\u548c\u51fa\u884c\u7ed3\u6784\u7684\u53d8\u5316\uff0c\u672c\u5e02\u516c\u5171\u4ea4\u901a\u53d1\u5c55\u9762\u4e34\u7740\u65b0\u7684\u5f62\u52bf\uff0c\u73b0\u884c\u7684\u7968\u4ef7\u653f\u7b56\u4e0e\u516c\u5171\u4ea4\u901a\u6574\u4f53\u53d1\u5c55\u8981\u6c42\u5df2\u7ecf\u4e0d\u76f8\u9002\u5e94\u3002\u201d\u5317\u4eac\u5e02\u53d1\u6539\u59d4\u76f8\u5173\u8d1f\u8d23\u4eba\u8bf4\uff0c\u4ee5\u5730\u94c1\u4e3a\u4f8b\uff0c\u4e58\u5ba2\u5728\u8def\u7f51\u4e2d\u7684\u4e58\u8f66\u8ddd\u79bb\uff0c\u4ece\u6700\u77ed\u7684400\u7c73\u5230\u6700\u957f\u768488\u516c\u91cc\uff0c\u76f8\u5dee200\u500d\uff0c\u4f46\u6240\u4ed8\u7968\u6b3e\u76f8\u540c\uff0c\u96be\u4ee5\u4f53\u73b0\u591a\u4e58\u5750\u591a\u4ed8\u8d39\u7684\u4e00\u822c\u89c4\u5f8b\u3002
p230
aV\u8bb0\u8005\u4ece\u5317\u4eac\u5e02\u53d1\u6539\u59d4\u4e86\u89e3\u5230\uff0c2013\u5e74\uff0c\u5317\u4eac\u5e02\u516c\u4ea4\u5ba2\u8fd0\u603b\u91cf\u8fbe\u523080.4\u4ebf\u4eba\u6b21\uff0c\u6bd42007\u5e74\u589e\u957f\u4e8664%\uff0c\u516c\u5171\u4ea4\u901a\u51fa\u884c\u6bd4\u4f8b\u8fbe\u523046%\uff0c\u63d0\u9ad8\u4e8611.5\u4e2a\u767e\u5206\u70b9\u3002
p231
aV\u5176\u4e2d\uff0c\u5730\u94c1\u8fd0\u8425\u7ebf\u8def\u4ece2006\u5e74\u76844\u6761114\u516c\u91cc\uff0c\u589e\u52a0\u52302013\u5e74\u768417\u6761465\u516c\u91cc\uff0c\u662f2006\u5e74\u76844.1\u500d\u3002\u5730\u9762\u516c\u4ea4\u8fd0\u884c\u7ebf\u8def\u5219\u75312006\u5e74\u7684620\u6761\uff0c\u589e\u52a0\u52302013\u5e74\u7684813\u6761\uff0c\u589e\u957f\u4e8631%\uff0c\u8fd0\u8425\u8f66\u8f86\u8fbe\u52302.3\u4e07\u91cf\u3002
p232
aV\u4e0a\u8ff0\u6307\u6807\u5747\u5728\u589e\u957f\uff0c\u8fd0\u8425\u6536\u5165\u5374\u5728\u4e0b\u964d\u3002\u8bb0\u8005\u5728\u5317\u4eac\u5e02\u53d1\u6539\u59d4\u5b98\u65b9\u7f51\u7ad9\u67e5\u8be2\u53d1\u73b0\uff0c\u8def\u9762\u4ea4\u901a\u7684\u8fd0\u8425\u6536\u5165\u75312007\u5e74\u768430.87\u4ebf\u5143\uff0c\u4e0b\u964d\u5230\u4e862013\u5e74\u768425.93\u4ebf\u5143\uff0c\u964d\u4f4e16%\uff0c\u4e25\u91cd\u4e8f\u635f\u3002\u5317\u4eac\u5730\u94c1\u516c\u53f8\u548c\u4eac\u6e2f\u5730\u94c1\u516c\u53f8\u4e5f\u540c\u6837\u9762\u4e34\u4e8f\u635f\u72b6\u51b5\u3002
p233
aV\u201c\u8fd9\u79cd\u53d1\u5c55\u6a21\u5f0f\u5728\u8d22\u52a1\u4e0a\u662f\u4e0d\u53ef\u6301\u7eed\u7684\uff0c\u4e5f\u662f\u56fd\u5185\u5176\u4ed6\u57ce\u5e02\u65e0\u6cd5\u5b66\u4e60\u548c\u501f\u9274\u7684\uff0c\u5b83\u5f88\u96be\u6210\u4e3a\u4e00\u4e2a\u57ce\u5e02\u6210\u529f\u7ecf\u8425\u7684\u6848\u4f8b\u3002\u201d\u4e2d\u56fd\u57ce\u5e02\u89c4\u5212\u8bbe\u8ba1\u7814\u7a76\u9662\u57ce\u5e02\u4ea4\u901a\u4e13\u4e1a\u7814\u7a76\u9662\u9ec4\u4f1f\u526f\u603b\u5de5\u7a0b\u5e08\u8bf4\u3002
p234
aV\u4e8b\u5b9e\u4e0a\uff0c\u53bb\u5e74\u5e74\u5e95\u65f6\uff0c\u5317\u4eac\u5c31\u66fe\u4f20\u51fa\u5730\u94c1\u8981\u6da8\u4ef7\u7684\u6d88\u606f\u3002\u5f7c\u65f6\uff0c\u5317\u4eac\u5e02\u653f\u5e9c\u529e\u516c\u5385\u5370\u53d1\u300a\u8fdb\u4e00\u6b65\u52a0\u5f3a\u8f68\u9053\u4ea4\u901a\u8fd0\u8425\u5b89\u5168\u5de5\u4f5c\u65b9\u6848\u300b\uff0c\u63d0\u51fa\u5c06\u5236\u5b9a\u9ad8\u5cf0\u65f6\u6bb5\u7968\u4ef7\u5dee\u522b\u5316\u65b9\u6848\u5e76\u62e9\u673a\u51fa\u53f0\uff0c\u901a\u8fc7\u4ef7\u683c\u6760\u6746\u5206\u6563\u9ad8\u5cf0\u65f6\u6bb5\u5ba2\u6d41\u538b\u529b\uff0c\u964d\u4f4e\u5927\u5ba2\u6d41\u98ce\u9669\u3002
p235
aV\u201c\u2018\u9996\u90fd\u9996\u5835\u2019\u3001\u4e58\u8f66\u62e5\u6324\u3001\u4e58\u8f66\u73af\u5883\u5dee\u3001\u5b89\u5168\u9690\u60a3\u7b49\uff0c\u662f\u76ee\u524d\u5317\u4eac\u5e02\u516c\u5171\u4ea4\u901a\u7684\u7a98\u5883\uff0c\u56e0\u6b64\uff0c\u6539\u9769\u662f\u5fc5\u8981\u7684\uff0c\u4e5f\u662f\u5fc5\u987b\u7684\u201d\uff0c\u5317\u4eac\u5e08\u8303\u5927\u5b66\u793e\u4f1a\u53d1\u5c55\u4e0e\u516c\u5171\u653f\u7b56\u5b66\u9662\u526f\u9662\u957f\u5f20\u5f3a\u8bf4\u3002
p236
aV\u4ece7\u67083\u65e5\u5f81\u96c6\u610f\u89c1\u8d77\uff0c\u81f37\u67086\u65e517\u65f6\uff0c\u5317\u4eac\u5e02\u53d1\u6539\u59d4\u5b98\u7f51\u4e0a\u5171\u516c\u5e03\u4e86293\u6761\u5e02\u6c11\u5efa\u8bae\u3002
p237
aV\u8bb0\u8005\u53d1\u73b0\uff0c\u5e02\u6c11\u7684\u610f\u89c1\u4e3b\u8981\u5206\u4e3a\u4e09\u79cd\u3002\u7b2c\u4e00\u79cd\u662f\u652f\u6301\u6da8\u4ef7\u7684\uff0c\u5360\u5230\u4e8663%\uff0c\u5176\u4e2d\u53c8\u5305\u62ec\u5e0c\u671b\u5fae\u8c03\u548c\u5927\u8c03\u4e24\u79cd\uff0c\u5206\u522b\u5360\u5230\u4e8696%\u548c4%;\u7b2c\u4e8c\u79cd\u4e3a\u53cd\u5bf9\u6da8\u4ef7\u7684\uff0c\u7ea6\u5360\u603b\u4f53\u768429%\uff0c\u5305\u62ec\u5e0c\u671b\u7ef4\u6301\u73b0\u72b6\u7684\u548c\u5e0c\u671b\u518d\u964d\u4ef7\u7684\uff0c\u4e24\u8005\u6bd4\u4f8b\u7ea6\u4e3a9:1;\u7b2c\u4e09\u79cd\u5219\u4e3b\u8981\u662f\u5bf9\u516c\u4ea4\u670d\u52a1\u3001\u4e58\u8f66\u73af\u5883\u7b49\u65b9\u9762\u63d0\u51fa\u5efa\u8bae\uff0c\u5360\u5230\u4e868%\u3002
p238
aV\u6bb7\u5148\u751f\u662f\u67d0\u592e\u4f01\u804c\u5458\uff0c\u6bcf\u5929\u4e58\u5730\u94c1\u4e0a\u4e0b\u73ed\u7684\u4ed6\uff0c\u652f\u6301\u7968\u4ef7\u5fae\u8c03\u3002
p239
aV\u201c\u5317\u4eac\u5730\u94c1\u7968\u4ef7\u592a\u4fbf\u5b9c\u4e86\u3002\u6211\u521a\u5230\u5317\u4eac\u7684\u65f6\u5019\uff0c\u89c9\u5f97\u8fd9\u662f\u6700\u5927\u7684\u798f\u5229\u3002\u4f46\u968f\u7740\u81ea\u5df1\u5750\u8f66\u6b21\u6570\u7684\u589e\u52a0\uff0c\u6211\u8d8a\u6765\u8d8a\u611f\u53d7\u5230\u5730\u94c1\u7684\u62e5\u6324\uff0c\u6bcf\u5929\u4e0a\u4e0b\u73ed\u7684\u5fc3\u60c5\u90fd\u5f88\u6c89\u91cd\u3002\u8c03\u4e00\u4e0b\u4e5f\u597d\u3002\u201d\u6bb7\u5148\u751f\u8bf4\uff0c\u5e0c\u671b\u901a\u8fc7\u9002\u5f53\u8c03\u6574\uff0c\u5f15\u5bfc\u4e00\u90e8\u5206\u4eba\u53bb\u4e58\u516c\u4ea4\uff0c\u6216\u8bb8\u80fd\u8ba9\u4e58\u8f66\u73af\u5883\u597d\u4e00\u4e9b\u3002
p240
aV\u5728\u7f51\u9875\u4e0a\u5efa\u8a00\u7684\u5e02\u6c11\u4e2d\uff0c\u6301\u8fd9\u79cd\u89c2\u70b9\u7684\u4eba\u4e0d\u5728\u5c11\u6570\u3002
p241
aV\u201c\u5317\u4eac\u516c\u4ea4\u7968\u5236\u4e0d\u5408\u7406\uff0c\u8fc7\u4f4e\uff0c\u662f\u5168\u56fd\u6700\u4f4e\u7684\u3002\u51fa\u884c\u6210\u672c\u4f4e\uff0c\u4e5f\u62c9\u4f4e\u4e86\u751f\u6d3b\u6210\u672c\uff0c\u5bfc\u81f4\u5927\u91cf\u5916\u57e0\u4eba\u58eb\u4e0d\u65ad\u6d8c\u5165\uff0c\u9053\u8def\u62e5\u5835\uff0c\u7a7a\u6c14\u6c61\u67d3\uff0c\u8d44\u6e90\u532e\u4e4f\uff0c\u5b89\u5168\u582a\u5fe7\uff0c\u793e\u4f1a\u798f\u5229\u88ab\u644a\u8584\uff0c\u751f\u6d3b\u4ef7\u683c\u88ab\u62ac\u9ad8\uff0c\u5317\u4eac\u4fe8\u7136\u6210\u4e3a\u9002\u4e8e\u8d5a\u94b1\u800c\u4e0d\u9002\u4e8e\u751f\u6d3b\u7684\u57ce\u5e02\u2026\u2026\u5317\u4eac\u7968\u4ef7\u5e94\u8be5\u6da8\u7a0d\uff0c\u5730\u94c1\u7968\u4ef7\u5e94\u662f\u4e00\u4e2a\u5408\u7406\u533a\u95f4\uff0c\u9075\u5b88\u591a\u5750\u8f66\u3001\u591a\u62ff\u94b1\u7684\u539f\u5219\uff0c\u53ef\u4ee5\u91c7\u53d6\u5355\u4e00\u7968\u5236\u548c\u9012\u8fdb\u5236\u591a\u5143\u7968\u5236\u3002\u201d\u5e02\u6c11\u4f55\u51af\u8bf4\u3002
p242
aV\u6709\u4e0d\u5c11\u4eba\u63d0\u51fa\u201c\u5206\u6bb5\u8ba1\u4ef7\u201d\u7684\u8c03\u6574\u7b56\u7565\u3002
p243
aV\u201c\u8d77\u6b654\u516c\u91cc\u4ee5\u51853\u5143;4\uff5e12\u516c\u91cc\u8303\u56f4\u5185\u6bcf\u9012\u589e4\u516c\u91cc\u52a01\u5143;12\u81f324\u516c\u91cc\u8303\u56f4\u5185\u6bcf\u9012\u589e6\u516c\u91cc\u52a01\u5143;24\u516c\u91cc\u4ee5\u540e\uff0c\u6bcf\u9012\u589e8\u516c\u91cc\u52a01\u5143\u3002\u201d\u5e02\u6c11\u7126\u6851\u5728\u5efa\u8a00\u4e2d\u5199\u9053\u3002
p244
aV\u201c\u5408\u7406\u8303\u56f4\u5185\u7684\u7968\u4ef7\u4e0a\u6da8\uff0c\u5e02\u6c11\u662f\u53ef\u4ee5\u63a5\u53d7\u7684\u3002\u201d\u9ec4\u4f1f\u8bf4\uff0c\u4ed6\u66fe\u5728\u5176\u4ed6\u7968\u4ef7\u9ad8\u4e8e\u5317\u4eac\u7684\u57ce\u5e02\u8c03\u7814\u8fc7\u516c\u4ea4\u4e58\u5ba2\u51fa\u884c\u610f\u613f\uff0c\u53d1\u73b0\u5c45\u6c11\u5bf9\u516c\u4ea4\u670d\u52a1\u8d28\u91cf\uff0c\u5305\u62ec\u5bf9\u5019\u8f66\u65f6\u95f4\u3001\u51c6\u70b9\u6027\u3001\u6362\u4e58\u6b21\u6570\u3001\u6b65\u884c\u65f6\u95f4\u3001\u4e58\u8f66\u65f6\u95f4\u3001\u8212\u9002\u6027\u7b49\u7684\u5173\u6ce8\uff0c\u90fd\u8981\u9ad8\u4e8e\u5bf9\u516c\u4ea4\u7968\u4ef7\u7684\u5173\u6ce8\u3002
p245
aV\u4f46\u4e5f\u6709\u4eba\u53cd\u5bf9\u6da8\u4ef7\uff0c\u5b66\u751f\u738b\u6210(\u5316\u540d)\u5c31\u662f\u5176\u4e2d\u4e4b\u4e00\u3002
p246
aV\u201c\u5b66\u751f\u6ca1\u6709\u4efb\u4f55\u6536\u5165\uff0c\u4e24\u5143\u7684\u5730\u94c1\u7968\u4ef7\u5bf9\u6211\u4eec\u6765\u8bf4\uff0c\u521a\u521a\u597d\u3002\u201d\u738b\u6210\u8bf4\uff0c\u5c3d\u7ba1\u6bcf\u6b21\u51fa\u95e8\uff0c\u5730\u94c1\u90fd\u5f88\u62e5\u6324\uff0c\u4f46\u53ea\u8981\u7701\u94b1\u4e86\uff0c\u8fd8\u662f\u5f88\u5f00\u5fc3\u3002\u201c\u5982\u679c\u5206\u6bb5\u8ba1\u4ef7\uff0c\u6211\u4eec\u53bb\u4e00\u4e2a\u7a0d\u8fdc\u7684\u5730\u65b9\uff0c\u51fa\u884c\u6210\u672c\u5c31\u592a\u5927\u4e86\u201d\u3002
p247
aV\u5e02\u6c11\u9648\u5a9b\u5a9b\u4e5f\u5728\u5efa\u8a00\u4e2d\u8bf4\u9053\uff1a\u201c\u6211\u8ba4\u4e3a\uff0c\u4e3a\u4e86\u4fc3\u4f7f\u5927\u5bb6\u51cf\u5c11\u79c1\u5bb6\u8f66\u51fa\u884c\uff0c\u5730\u9762\u516c\u4ea4\u7968\u5236\u7968\u4ef7\u5e94\u4ee5\u56fd\u5bb6\u8865\u52a9\u4e3a\u4e3b\uff0c\u4e0d\u5e94\u8c03\u4ef7\u3002\u201d
p248
aV\u5979\u8ba4\u4e3a\uff0c\u5317\u4eac\u5730\u533a\u96fe\u973e\u5929\u8fde\u7eed\u589e\u591a\uff0c\u7a7a\u6c14\u6c61\u67d3\u76ee\u8d8b\u4e25\u91cd\uff0c\u8fd9\u4e0e\u5730\u9762\u4ea4\u901a\u5de5\u5177\u8fc7\u591a\u6709\u5173\uff0c\u6cbb\u7406\u6c61\u67d3\uff0c\u5e94\u8003\u8651\u5230\u4fc3\u4f7f\u6c11\u4f17\u591a\u4e58\u5750\u516c\u5171\u4ea4\u901a\u5de5\u5177\uff0c\u800c\u8c03\u4ef7\u4f1a\u589e\u52a0\u79c1\u5bb6\u8f66\u51fa\u884c\u6570\u91cf\uff0c\u4e0d\u5b9c\u63d0\u5021\u3002
p249
aV\u201c\u5176\u5b9e\u5f88\u591a\u65f6\u5019\uff0c\u5e02\u6c11\u4e0d\u53ea\u5173\u5fc3\u4e00\u4e2a\u4ef7\u683c\u95ee\u9898\uff0c\u66f4\u91cd\u8981\u7684\u662f\u5bf9\u516c\u5171\u653f\u7b56\u51b3\u7b56\u8fc7\u7a0b\u4e2d\u7684\u77e5\u6653\u3001\u53c2\u4e0e\u3002\u8fd9\u6b21\u7684\u5efa\u8a00\u732e\u7b56\u662f\u4e2a\u5f88\u597d\u7684\u5c1d\u8bd5\uff0c\u4ee5\u5f00\u653e\u7684\u59ff\u6001\u5f81\u96c6\u610f\u89c1\uff0c\u6709\u5229\u4e8e\u5f97\u5230\u5e02\u6c11\u7684\u7406\u89e3\u3002\u201d\u5f20\u5f3a\u8bf4\u3002
p250
aV\u4f34\u968f\u201c\u6da8\u4ef7\u201d\u7684\u4e89\u8bae\u56db\u8d77\uff0c\u591a\u4f4d\u4e13\u5bb6\u5728\u63a5\u53d7\u4e2d\u56fd\u9752\u5e74\u62a5\u8bb0\u8005\u91c7\u8bbf\u65f6\u8868\u793a\uff0c\u4ef7\u683c\u6539\u9769\u7edd\u4e0d\u662f\u7ec8\u6781\u76ee\u7684\uff0c\u5ec9\u4ef7\u65f6\u4ee3\u7ed3\u675f\u540e\uff0c\u5e94\u8be5\u662f\u9ad8\u6548\u7387\u9ad8\u6c34\u5e73\u670d\u52a1\u65f6\u4ee3\u7684\u5f00\u542f\u3002
p251
aV\u201c\u4ece\u4e16\u754c\u8303\u56f4\u770b\uff0c\u516c\u5171\u4ea4\u901a\u5177\u6709\u51c6\u516c\u5171\u4ea7\u54c1\u7684\u7279\u6027\uff0c\u516c\u76ca\u6027\u4e0e\u7ecf\u8425\u6027\u5e76\u5b58\uff0c\u5176\u5b9a\u4ef7\u95ee\u9898\u4e00\u76f4\u90fd\u662f\u4e2a\u96be\u9898\u3002\u201d\u5f20\u5f3a\u8bf4\u3002
p252
aV\u76f8\u5173\u4e13\u5bb6\u8868\u793a\uff0c\u6539\u9769\uff0c\u9996\u5148\u96be\u5728\u5229\u76ca\u5173\u7cfb\u7684\u5e73\u8861\uff0c\u5b9a\u4ef7\u7684\u6838\u5fc3\u662f\u5904\u7406\u597d\u653f\u5e9c\u3001\u4f01\u4e1a\u3001\u4e2a\u4eba\u7684\u5173\u7cfb\uff0c\u4ef7\u683c\u653f\u7b56\u5c31\u662f\u627e\u5230\u6700\u4f73\u5e73\u8861\u70b9\u3002\u7b2c\u4e8c\uff0c\u96be\u5728\u65e2\u8981\u575a\u6301\u516c\u76ca\u6027\uff0c\u53c8\u8981\u4fdd\u969c\u8fd0\u8425\u7684\u5e02\u573a\u5316\uff0c\u5b9e\u73b0\u516c\u5e73\u4e0e\u6548\u7387\u7684\u5747\u8861\u3002\u7b2c\u4e09\uff0c\u9700\u8981\u7edf\u7b79\u597d\u5f53\u671f\u4e0e\u957f\u8fdc\u7684\u5173\u7cfb\uff0c\u8981\u80fd\u591f\u5b9e\u73b0\u516c\u5171\u4ea4\u901a\u53ef\u6301\u7eed\u53d1\u5c55\u3002
p253
aV\u636e\u5f20\u5f3a\u4ecb\u7ecd\uff0c\u897f\u65b9\u5f88\u591a\u56fd\u5bb6\u7684\u7968\u4ef7\u653f\u7b56\u8f83\u4e3a\u7075\u6d3b\u3002\u5bf9\u957f\u671f\u4e58\u5750\u7684\u548c\u5355\u6b21\u4e58\u5750\u7684\u4e58\u5ba2\u4f1a\u6709\u533a\u5206\uff0c\u5bf9\u9ad8\u5cf0\u65f6\u6bb5\u548c\u4f4e\u5cf0\u65f6\u6bb5\u4e5f\u4f1a\u6709\u533a\u5206\u3002\u540c\u65f6\uff0c\u65e5\u7968\u3001\u6708\u7968\u3001\u5b63\u7968\u3001\u5e74\u7968\u7b49\u4e5f\u5728\u591a\u5143\u8fd0\u7528\u3002\u201c\u8fd9\u4f7f\u5f97\u7968\u4ef7\u66f4\u52a0\u7acb\u4f53\u591a\u5143\uff0c\u6211\u4eec\u53ef\u4ee5\u9002\u5f53\u501f\u9274\u3002\u201d\u5f20\u5f3a\u8bf4\u3002
p254
aV\u9ec4\u4f1f\u5219\u8ba4\u4e3a\uff0c\u5728\u5b66\u4e60\u56fd\u5916\u7ecf\u9a8c\u7684\u57fa\u7840\u4e0a\uff0c\u5317\u4eac\u8fd8\u8981\u7ed3\u5408\u81ea\u8eab\u7684\u5b9e\u9645\uff0c\u5236\u5b9a\u51fa\u66f4\u52a0\u7075\u6d3b\u65b9\u4fbf\u3001\u66f4\u52a0\u5438\u5f15\u516c\u4ea4\u4e58\u5ba2\u7684\u516c\u4ea4\u7968\u5236\u4f53\u7cfb\u3002
p255
aV\u201c\u5317\u4eac\u5730\u9762\u4ea4\u901a\u53d1\u5c55\u4ecd\u7136\u4e0d\u5feb\uff0c\u6574\u4f53\u670d\u52a1\u8d28\u91cf\u8fd8\u4e0d\u80fd\u6ee1\u8db3\u5e02\u6c11\u7684\u9700\u8981\uff0c\u4e14\u5728\u548c\u5c0f\u6c7d\u8f66\u7684\u7ade\u4e89\u4e2d\uff0c\u4e5f\u5904\u4e8e\u52a3\u52bf\u3002\u201d\u540c\u65f6\uff0c\u9ec4\u4f1f\u8bf4\uff0c\u53d7\u5730\u9762\u62e5\u5835\u5f71\u54cd\uff0c\u516c\u4ea4\u7684\u53ef\u80fd\u8fd0\u884c\u6548\u7387\u8fd8\u6709\u6240\u4e0b\u964d\u3002
p256
aV\u4e0d\u5c11\u4eba\u8ba4\u4e3a\uff0c\u8fd9\u4e5f\u662f\u5bfc\u81f4\u5730\u94c1\u62e5\u6324\u7684\u539f\u56e0\u4e4b\u4e00\u3002\u52a0\u4e4b\u5730\u94c1\u7968\u4ef7\u4f4e\u5ec9\uff0c\u5f88\u591a\u539f\u672c\u53ef\u9009\u62e9\u516c\u4ea4\u51fa\u884c\u7684\u77ed\u9014\u4e58\u5ba2\uff0c\u8fd8\u662f\u4f1a\u9009\u62e9\u5750\u5730\u94c1\uff0c\u8fd9\u65e0\u5f62\u4e2d\u4e5f\u589e\u52a0\u4e86\u5730\u94c1\u7684\u201c\u8d1f\u91cd\u201d\u3002
p257
aV\u9ec4\u4f1f\u5219\u5efa\u8bae\uff0c\u5e94\u5e26\u52a8\u516c\u5171\u4ea4\u901a\u8fd0\u8425\u673a\u5236\u7684\u8fdb\u4e00\u6b65\u6539\u9769\uff0c\u628a\u5bf9\u6210\u672c\u89c4\u5236\u7684\u76d1\u7ba1\uff0c\u53d8\u4e3a\u5bf9\u670d\u52a1\u8d28\u91cf\u7684\u76d1\u7ba1\u3002\u5728\u5408\u7406\u7684\u7968\u4ef7\u4e0b\uff0c\u653f\u5e9c\u3001\u4f01\u4e1a\u5747\u5bf9\u670d\u52a1\u8d28\u91cf\u8d1f\u8d23\uff0c\u5e76\u63a5\u53d7\u5e02\u6c11\u76d1\u7763\u3002
p258
aV\u201c\u73b0\u5728\uff0c\u5317\u4eac\u7684\u516c\u5171\u4ea4\u901a\u9762\u4e34\u8bf8\u591a\u4e0d\u5408\u7406\uff0c\u4f46\u5982\u4f55\u6765\u6539\u9700\u8981\u4ed4\u7ec6\u7814\u7a76\u201d\uff0c\u5f20\u5f3a\u8bf4\uff0c\u201c\u5fc5\u987b\u5145\u5206\u8c03\u7814\uff0c\u641e\u6e05\u695a\u662f\u4ec0\u4e48\u56e0\u7d20\u5728\u5f71\u54cd\u7740\u5e02\u6c11\u51fa\u884c\u4ea4\u901a\u5de5\u5177\u7684\u9009\u62e9\uff0c\u54ea\u91cc\u5b58\u5728\u963b\u529b\uff0c\u54ea\u91cc\u8fd8\u6709\u7a7a\u95f4\u3002\u5229\u7528\u8bf8\u5982\u5927\u6570\u636e\u7684\u65b9\u6cd5\uff0c\u63d0\u9ad8\u653f\u7b56\u7684\u9488\u5bf9\u6027\u3002\u201d
p259
aV\u201c\u4ef7\u683c\u6539\u9769\u4e0d\u662f\u5b64\u7acb\u7684\uff0c\u7275\u4e00\u53d1\u5219\u52a8\u5168\u8eab\u3002\u201d\u5f20\u5f3a\u8bf4\uff0c\u76f8\u5173\u90e8\u95e8\u5fc5\u987b\u6709\u4e00\u4e2a\u5f00\u653e\u7684\u59ff\u6001\uff0c\u7efc\u5408\u8003\u8651\u4ef7\u683c\u3001\u6210\u672c\u3001\u5b89\u5168\u3001\u89c4\u5212\u3001\u670d\u52a1\u3001\u76d1\u7ba1\u3001\u8fd0\u8425\u7b49\u591a\u65b9\u9762\u56e0\u7d20\u3002\u201c\u8fd9\u662f\u4e00\u4e2a\u7cfb\u7edf\u6027\u7684\u95ee\u9898\uff0c\u4e5f\u5fc5\u987b\u6709\u7ec4\u5408\u5f0f\u7684\u5e94\u5bf9\u63aa\u65bd\u3002\u201d
p260
asg19
V\u5317\u4eac\u522b\u5730\u94c12\u5143\u65f6\u4ee3\u516d\u6210\u5e02\u6c11\u652f\u6301\u7968\u4ef7\u5fae\u8c03
p261
sa(dp262
g2
S'http://politics.gmw.cn/2016-11/07/content_22855418.htm'
p263
sg4
V2016-11-07 08:22
p264
sg6
(lp265
V\u5317\u4eac\u6668\u62a5\u8baf(\u8bb0\u8005\u90b9\u4e50)11\u670815\u65e5\u8d77\uff0c\u4e58\u57507\u53f7\u7ebf\u30018\u53f7\u7ebf\u300115\u53f7\u7ebf\u3001\u623f\u5c71\u7ebf\u7684\u4e58\u5ba2\u8981\u7279\u522b\u6ce8\u610f\uff0c\u4e0a\u8ff0\u56db\u6761\u5730\u94c1\u7ebf\u8def\u5c06\u5b9e\u65bd\u5168\u7a0b\u81ea\u52a9\u552e\u7968\u5145\u503c\u670d\u52a1\uff0c\u4eba\u5de5\u552e\u7968\u7a97\u53e3\u4f1a\u5168\u90e8\u53d6\u6d88\u3002\u5730\u94c1\u516c\u53f8\u76f8\u5173\u8d1f\u8d23\u4eba\u8868\u793a\uff0c\u8fd9\u662f\u5730\u94c1\u516c\u53f8\u9996\u6b21\u5c06\u6574\u6761\u7ebf\u8def\u4f5c\u4e3a\u81ea\u52a9\u670d\u52a1\u8bd5\u70b9\uff0c\u4eca\u540e\u662f\u5426\u63a8\u5e7f\uff0c\u8981\u770b\u8bd5\u70b9\u60c5\u51b5\u800c\u5b9a\u3002
p266
aV\u8fd9\u56db\u6761\u5730\u94c1\u7ebf\u8def\u76f8\u5bf9\u6765\u8bf4\u5ba2\u6d41\u91cf\u4e0d\u662f\u592a\u5927\uff0c\u4f46\u662f\u65e9\u665a\u9ad8\u5cf0\u65f6\u4e70\u7968\u53ea\u80fd\u201c\u81ea\u52a9\u201d\u4f1a\u4e0d\u4f1a\u9020\u6210\u62e5\u5835\uff1f\u5bf9\u6b64\uff0c\u76f8\u5173\u8d1f\u8d23\u4eba\u8868\u793a\uff0c\u5c4a\u65f6\uff0c\u5730\u94c1\u516c\u53f8\u5c06\u5728\u56db\u6761\u8bd5\u70b9\u7ebf\u8def\u8f66\u7ad9\u81ea\u52a9\u8d2d\u7968\u5145\u503c\u673a\u7fa4\u5904\uff0c\u5b89\u6392\u5de5\u4f5c\u4eba\u5458\u5f15\u5bfc\u3001\u534f\u52a9\u4e58\u5ba2\u81ea\u52a9\u670d\u52a1\uff0c\u8fd8\u53ef\u4e3a\u4e58\u5ba2\u5151\u6362\u96f6\u94b1\u3002\u540c\u65f6\uff0c\u8fd8\u5c06\u5b89\u6392\u6280\u672f\u4eba\u5458\u8fdb\u884c\u5168\u9762\u8bbe\u5907\u6392\u67e5\uff0c\u52a0\u5f3a\u81ea\u52a9\u8d2d\u7968\u5145\u503c\u8bbe\u5907\u503c\u5b88\u529b\u91cf\uff0c\u4e00\u65e6\u51fa\u73b0\u8bbe\u5907\u6545\u969c\u7b2c\u4e00\u65f6\u95f4\u5904\u7f6e\u3002
p267
aV\u636e\u4ecb\u7ecd\uff0c\u4e3a\u5b9e\u65bd\u8fd9\u9879\u5de5\u4f5c\uff0c\u5730\u94c1\u516c\u53f8\u5728\u524d\u671f\u505a\u4e86\u5927\u91cf\u8c03\u7814\u548c\u5206\u6790\u3002\u6839\u636e\u6570\u636e\u7edf\u8ba1\u548c\u73b0\u573a\u8bc4\u4f30\uff0c\u6700\u7ec8\u786e\u5b9a\u4e86\u57287\u53f7\u7ebf\u30018\u53f7\u7ebf\u300115\u53f7\u7ebf\u3001\u623f\u5c71\u7ebf\u5b9e\u65bd\u8bd5\u70b9\u3002
p268
aV\u4e3a\u66f4\u597d\u5730\u5b9e\u65bd\u8bd5\u70b9\uff0c\u5730\u94c1\u516c\u53f8\u5df2\u7ec4\u7ec7\u8bd5\u70b9\u7ebf\u8def\u8f66\u7ad9\u5458\u5de5\u5f00\u5c55\u4e86\u76f8\u5173\u57f9\u8bad\uff0c\u786e\u4fdd\u6bcf\u540d\u5458\u5de5\u90fd\u638c\u63e1\u81ea\u52a9\u670d\u52a1\u5b9e\u65bd\u3001\u5e94\u6025\u9884\u6848\u7b49\u5404\u9879\u5de5\u4f5c\u8981\u9879\u3002\u540c\u65f6\u8fd8\u5c06\u4ee5\u201c\u5021\u5bfc\u81ea\u52a9\u3001\u5feb\u4e50\u51fa\u884c\u2014\u2014\u81ea\u52a9\u8d2d\u7968\u3001\u81ea\u52a9\u5145\u503c\u3001\u81ea\u52a9\u5237\u5361\u3001\u81ea\u52a9\u4e58\u8f66\u201d\u4e3a\u4e3b\u9898\uff0c\u5728\u8bd5\u70b9\u5de5\u4f5c\u542f\u52a8\u5f53\u65e5\u5927\u529b\u5f00\u5c55\u5ba3\u4f20\u6d3b\u52a8\uff0c\u5229\u7528\u8bbe\u7f6e\u5ba3\u4f20\u53f0\u3001\u60ac\u6302\u6a2a\u5e45\u3001\u5f20\u8d34\u5ba3\u4f20\u753b\u3001\u8f66\u7ad9\u5e7f\u64ad\u3001\u53d1\u653e\u5ba3\u4f20\u54c1\u7b49\u65b9\u5f0f\uff0c\u544a\u77e5\u4e58\u5ba2\u81ea\u52a9\u670d\u52a1\u4e8b\u9879\uff0c\u8bf7\u4e58\u5ba2\u5f00\u5c55\u81ea\u52a9\u670d\u52a1\u4f53\u9a8c\u3002
p269
aV\u9700\u8981\u5411\u4e58\u5ba2\u8bf4\u660e\u7684\u662f\uff0c\u76ee\u524d\uff0c\u5f02\u578b\u5361\u5145\u503c\u3001\u65b0\u529e\u4e00\u5361\u901a\u5361\u3001\u4e00\u5361\u901a\u5361\u9000\u5361\uff0c\u4ee5\u53ca\u5355\u7a0b\u7968\u8865\u7968\u7b49\u4e1a\u52a1\uff0c\u5747\u4e0d\u80fd\u5728\u81ea\u52a9\u8d2d\u7968\u5145\u503c\u673a\u8bbe\u5907\u4e0a\u5b8c\u6210\uff0c\u4e58\u5ba2\u4ecd\u9700\u8054\u7cfb\u8f66\u7ad9\u5de5\u4f5c\u4eba\u5458\u529e\u7406\u3002
p270
asg19
V\u5317\u4eac\u56db\u6761\u5730\u94c1\u8bd5\u70b9\u201c\u65e0\u4eba\u552e\u7968\u201d\u672c\u670815\u65e5\u8d77\u5b9e\u65bd
p271
sa(dp272
g2
S'http://travel.gmw.cn/2017-01/03/content_23391003.htm'
p273
sg4
V2017-01-03 08:43
p274
sg6
(lp275
V\u5143\u65e6\u5047\u671f\uff0c\u5730\u94c1\u65b0\u7ebf\u4eba\u6c14\u513f\u65fa\uff0c16\u53f7\u7ebf\u5317\u6bb5\u5438\u5f1513.4\u4e07\u4eba\u6b21\u642d\u4e58\u3002\u4eca\u8d77\uff0c\u672c\u5e0224\u5ea7\u5730\u94c1\u7ad9\u4f4e\u5cf0\u7968\u4ef7\u5c06\u62535\u6298\uff0c\u4ea4\u901a\u90e8\u95e8\u5e0c\u671b\u901a\u8fc7\u4ef7\u683c\u6760\u6746\u5f15\u5bfc\u4e58\u5ba2\u9519\u5cf0\u51fa\u884c\uff0c\u7eff\u8272\u51fa\u884c\u3002
p276
aV\u5143\u65e6\u5047\u671f\uff0c\u4eac\u6e2f\u5730\u94c1\u6240\u8f9616\u53f7\u7ebf\u5317\u6bb5\u30014\u53f7\u7ebf\u3001\u5927\u5174\u7ebf\u548c14\u53f7\u7ebf\u7d2f\u8ba1\u5ba2\u8fd0\u91cf\u8fbe\u5230301.2\u4e07\u4eba\u6b21\u3002\u96644\u53f7\u7ebf\u5916\uff0c\u6bcf\u6761\u7ebf\u90fd\u589e\u53d1\u4e24\u5217\u4e34\u5ba2\uff0c\u5e94\u5bf9\u5047\u65e5\u5927\u5ba2\u6d41\u3002\u65b0\u5f00\u901a\u768416\u53f7\u7ebf\u5317\u6bb5\u5f00\u884c\u8f66\u6b21\u8fbe768\u5217\uff0c\u5438\u5f1513.4\u4e07\u4eba\u6b21\u5ba2\u6d41\u3002
p277
aV16\u53f7\u7ebf\u5317\u6bb5\u5404\u8f66\u7ad9\u4e3a\u65b9\u4fbf\u4e58\u5ba2\uff0c\u91c7\u53d6\u4e86\u5f88\u591a\u4e2a\u6027\u5316\u8bbe\u8ba1\uff0c\u5176\u4e2d\u536b\u751f\u95f4\u7167\u660e\u4eae\u5ea6\u662f\u5317\u4eac\u5e02\u5730\u65b9\u6807\u51c6\u6700\u4f4e\u8981\u6c42\u76843\u500d\uff0c\u6362\u6c14\u6b21\u6570\u6bd4\u89c4\u5b9a\u589e\u52a01\u500d\uff0c\u4e00\u5c0f\u65f6\u6362\u6c14\u4e0d\u5c11\u4e8e20\u6b21\u3002\u536b\u751f\u95f4\u4e2d\u91c7\u7528\u843d\u5730\u5f0f\u5e72\u624b\u673a\uff0c\u4ee5\u907f\u514d\u6c34\u6ef4\u6ef4\u843d\uff0c\u9020\u6210\u5730\u9762\u6e7f\u6ed1\u3002
p278
aV\u4f4e\u5cf0\u4f18\u60e0\u7968\u4ef7\u7ad9\u70b9\u589e\u81f324\u4e2a
p279
aV\u4eca\u5929\u5f00\u59cb\uff0c\u516b\u901a\u7ebf\u3001\u660c\u5e73\u7ebf16\u4e2a\u7ad9\u70b9\uff0c6\u53f7\u7ebf\u5317\u8fd0\u6cb3\u897f\u7ad9\u81f3\u9752\u5e74\u8def\u7ad98\u5ea7\u8f66\u7ad9\u5b9e\u65bd\u4f4e\u5cf0\u7968\u4ef7\u4f18\u60e0\u3002\u4eca\u5e74\u5185\u51e1\u5de5\u4f5c\u65e57\u65f6\uff08\u542b\uff09\u524d\uff0c\u5237\u4e00\u5361\u901a\u8fdb\u7ad9\u7684\u4e58\u5ba2\uff0c\u7968\u4ef7\u5c06\u4eab5\u6298\u4f18\u60e0\u3002
p280
aV2015\u5e7412\u670828\u65e5\u8d77\uff0c\u516b\u901a\u7ebf\u548c\u660c\u5e73\u7ebf16\u5ea7\u8f66\u7ad9\u5c31\u5f00\u59cb\u5b9e\u884c\u4f4e\u5cf0\u7968\u4ef77\u6298\u4f18\u60e0\u3002\u6b64\u6b21\u6269\u5927\u5b9e\u65bd\u8303\u56f4\uff0c\u52a0\u5927\u4f18\u60e0\u5e45\u5ea6\u3002
p281
aV\u4eca\u5929\u8d77\uff0c\u4e58\u5ba2\u53ea\u8981\u5728\u89c4\u5b9a\u768424\u5ea7\u8f66\u7ad9\u6309\u89c4\u5b9a\u65f6\u95f4\u8fdb\u7ad9\uff0c\u51fa\u7ad9\uff08\u4e0d\u542b\u673a\u573a\u7ebf\u8f66\u7ad9\uff09\u6263\u8d39\u65f6\uff0c\u5c06\u81ea\u52a8\u5728\u7d2f\u8ba1\u6298\u6263\u4f18\u60e0\u653f\u7b56\u7684\u57fa\u7840\u4e0a\uff0c\u989d\u5916\u4eab\u53d7\u7968\u4ef75\u6298\u4f18\u60e0\u3002
p282
aV\u5e02\u4ea4\u901a\u59d4\u8868\u793a\uff0c\u5c06\u5b9a\u671f\u5bf9\u5b9e\u65bd\u6548\u679c\u8fdb\u884c\u603b\u7ed3\u8bc4\u4f30\uff0c\u5e76\u6839\u636e\u8bc4\u4f30\u7ed3\u679c\u786e\u5b9a\u8bd5\u884c\u671f\u540e\u662f\u5426\u7ee7\u7eed\u5b9e\u65bd\u3002
p283
aV\u5e74\u5e74\u5730\u94c1\u5f00\u65b0\u7ebf\u7684\u8001\u89c4\u77e9\u6ca1\u53d8\uff0c\u4eca\u5e74\u53c8\u67093\u6761\u65b0\u7ebf\u5c06\u9646\u7eed\u5f00\u901a\u3002
p284
aV2016\u5e7412\u6708\uff0c\u672c\u5e02\u5730\u94c1\u7ebf\u7f51\u4e00\u53e3\u6c14\u513f\u5f00\u5de54\u6761\u65b0\u7ebf\uff0c\u5305\u62ec\u516b\u901a\u7ebf\u5357\u5ef6\u3001\u660c\u5e73\u7ebf\u5357\u5ef6\u4e00\u671f\u548c\u5e73\u8c37\u7ebf\uff0c\u65b0\u673a\u573a\u7ebf\u4e00\u671f\u4e5f\u5b9e\u73b0\u5b9e\u8d28\u6027\u5f00\u5de5\u3002
p285
aV\u81f3\u6b64\uff0c\u672c\u5e02\u5728\u5efa\u8f68\u9053\u4ea4\u901a\u7ebf\u8def\u5df2\u8fbe20\u6761\uff0c\u603b\u91cc\u7a0b\u7ea6370\u516c\u91cc\u3002\u8f68\u9053\u4ea4\u901a\u5728\u5efa\u7ebf\u8def\u91cc\u7a0b\u518d\u521b\u5386\u53f2\u65b0\u9ad8\u3002
p286
aV\u4eca\u5e74\u5373\u5c06\u5f00\u901a\u7684\u8f68\u9053\u4ea4\u901a\u65b0\u7ebf\u5404\u6709\u7279\u8272\u3002\u71d5\u623f\u7ebf\u5b9e\u73b0\u5168\u81ea\u52a8\u65e0\u4eba\u9a7e\u9a76\uff0c\u897f\u90ca\u7ebf\u662f\u672c\u5e02\u7b2c\u4e00\u6761\u73b0\u4ee3\u6709\u8f68\u7535\u8f66\uff0cS1\u7ebf\u5219\u662f\u672c\u5e02\u9996\u6761\u4e2d\u4f4e\u901f\u78c1\u60ac\u6d6e\u7ebf\u8def\u3002\u5e74\u5185\uff0c\u71d5\u623f\u7ebf\u652f\u7ebf\u548cCBD\u7ebf\u5747\u8ba1\u5212\u5f00\u5de5\u3002
p287
aV\u5de5\u4f5c\u65e57\uff1a00\u4ee5\u524d\uff0c\u987b\u7528\u4e00\u5361\u901a
p288
aV\u571f\u6865\u3001\u4e34\u6cb3\u91cc\u3001\u68a8\u56ed\u3001\u4e5d\u68f5\u6811\u3001\u679c\u56ed\u3001\u901a\u5dde\u5317\u82d1\u3001\u516b\u91cc\u6865\u3001\u7ba1\u5e84\u3001\u53cc\u6865\u3001\u4f20\u5a92\u5927\u5b66\u3001\u9ad8\u7891\u5e97
p289
aV\u5357\u90b5\u3001\u6c99\u6cb3\u9ad8\u6559\u56ed\u3001\u6c99\u6cb3\u3001\u5de9\u534e\u57ce\u3001\u6731\u8f9b\u5e84
p290
aV\u5317\u8fd0\u6cb3\u897f\u3001\u901a\u5dde\u5317\u5173\u3001\u7269\u8d44\u5b66\u9662\u8def\u3001\u8349\u623f\u3001\u5e38\u8425\u3001\u9ec4\u6e20\u3001\u8921\u88e2\u5761\u3001\u9752\u5e74\u8def
p291
aV\u5047\u671f\u516c\u4ea4\u8fd0\u9001\u4e58\u5ba2\u4e09\u5343\u4e07\u4eba\u6b21
p292
aV\u672c\u62a5\u8baf\u53d7\u96fe\u973e\u3001\u5927\u96fe\u5f71\u54cd\uff0c\u9014\u7ecf\u9ad8\u5feb\u901f\u8def\u7684\u516c\u4ea4\u7ebf\u8def\u5047\u671f\u91c7\u53d6\u7ed5\u884c\u63aa\u65bd\u3002\u5047\u671f\u4e09\u5929\uff0c\u5168\u5e02\u67093241.97\u4e07\u4eba\u6b21\u642d\u4e58\u516c\u4ea4\u51fa\u884c\u3002\u65b0\u5e74\u7b2c\u4e00\u5929\u5f00\u901a\u7684\u65c5\u6e38\u516c\u4ea41\u7ebf\u9996\u65e5\u53d1\u8f6620\u8d9f\uff0c\u5438\u5f15672\u540d\u6e38\u5ba2\u4e58\u5750\u3002\u6b64\u5916\uff0c\u5047\u671f\u524d\u4e24\u5929\uff0c\u9014\u7ecf16\u53f7\u7ebf\u5317\u6bb5\u768451\u6761\u516c\u4ea4\u7ebf\u8def\u8fd0\u9001\u4e58\u5ba270\u4f59\u4e07\u4eba\u6b21\u3002
p293
aV\u4eca\u5929\u662f\u65b0\u5e74\u9996\u4e2a\u5de5\u4f5c\u65e5\uff0c\u8f66\u8f86\u9650\u884c\u5c3e\u53f71\u548c6\u3002\u4ea4\u7ba1\u90e8\u95e8\u63d0\u793a\uff0c\u672c\u5468\u524d\u5f80\u5927\u578b\u533b\u9662\u5c31\u8bca\u7684\u8f66\u8f86\u8f83\u4e3a\u96c6\u4e2d\uff0c\u5de5\u4f5c\u65e58\u65f6\u81f315\u65f6\u533b\u9662\u5468\u8fb9\u8f66\u6d41\u96c6\u4e2d\u3002
p294
aV\u6839\u636e\u4ee5\u5f80\u7ecf\u9a8c\uff0c\u8282\u540e\u4e00\u5468\u5185\u524d\u5f80\u5927\u578b\u533b\u9662\u5c31\u8bca\u7684\u8f66\u8f86\u8f83\u4e3a\u96c6\u4e2d\uff0c\u5176\u4e2d\u79ef\u6c34\u6f6d\u533b\u9662\u3001\u5929\u575b\u533b\u9662\u3001\u4e2d\u65e5\u53cb\u597d\u533b\u9662\u3001\u513f\u7ae5\u533b\u9662\u548c\u513f\u7814\u6240\u5468\u8fb9\u6613\u51fa\u73b0\u8f66\u4f4d\u9971\u548c\u3001\u8f66\u884c\u7f13\u6162\u60c5\u51b5\uff0c\u5de5\u4f5c\u65e58\u65f6\u81f315\u65f6\u662f\u8f66\u6d41\u9ad8\u5cf0\u65f6\u6bb5\uff0c\u51fa\u884c\u5c3d\u91cf\u907f\u5f00\u4e0a\u8ff0\u533b\u9662\u5468\u8fb9\u9053\u8def\u3002
p295
aV\u6b64\u5916\uff0c\u8282\u540e\u8d27\u7269\u8fd0\u8f93\u6bd4\u8f83\u9891\u7e41\uff0c\u5357\u90e8\u5730\u533a\u7684\u5927\u578b\u6279\u53d1\u5e02\u573a\u548c\u7269\u6d41\u4e2d\u5fc3\u5468\u8fb9\u9053\u8def\uff0c\u5bb9\u6613\u51fa\u73b0\u62e5\u5835\u60c5\u51b5\u3002\u5176\u4e2d\uff0c\u4eac\u826f\u8def\u72fc\u57a1\u8def\u53e3\u81f3\u6c38\u7acb\u5927\u6865\u8def\u6bb5\uff0c\u6613\u62e5\u5835\u65f6\u95f4\u4e3a7\u65f6\u81f310\u65f6\u300115\u65f6\u81f320\u65f6\u3002\u8fc7\u5883\u8f66\u8f86\u53ef\u4ee5\u7ecf\u5357\u4e94\u73af-\u4eac\u5f00\u9ad8\u901f-\u9ec4\u826f\u8def\u884c\u9a76\uff1b\u897f\u5357\u4e09\u73af\u7389\u6cc9\u8425\u6865\u533a\u4e1c\u5411\u897f\u65b9\u5411\uff0c\u6613\u62e5\u5835\u65f6\u6bb5\u4e3a6\u65f6\u81f311\u65f6\uff0c\u53bb\u5f80\u897f\u90e8\u5730\u533a\u7684\u8fc7\u5883\u8f66\u8f86\u53ef\u7531\u5357\u4e8c\u73af\u3001\u4e3d\u6cfd\u8def\u53bb\u5f80\u897f\u4e09\u73af\u3002
p296
aV\u6839\u636e\u5e02\u7a7a\u6c14\u91cd\u6c61\u67d3\u5e94\u6025\u6307\u6325\u90e8\u901a\u77e5\uff0c\u672a\u6765\u51e0\u5929\u4eac\u6d25\u5180\u5927\u90e8\u5206\u5730\u533a\u4ecd\u5c06\u5904\u4e8e\u4e2d\u81f3\u91cd\u5ea6\u6c61\u67d3\u6c34\u5e73\uff0c\u7ee7\u7eed\u4fdd\u6301\u7a7a\u6c14\u91cd\u6c61\u67d3\u6a59\u8272\u9884\u8b66\uff0c\u56fd\u2160\u56fd\u2161\u6392\u653e\u6807\u51c6\u8f7b\u578b\u6c7d\u6cb9\u8f66\uff0c\u5efa\u7b51\u5783\u573e\u3001\u6e23\u571f\u3001\u7802\u77f3\u8fd0\u8f93\u8f66\u8f86\u7981\u6b62\u4e0a\u8def\u884c\u9a76\u3002\uff08\u8bb0\u8005\u5218\u5195\u5b59\u5b8f\u9633\uff09
p297
asg19
V\u5317\u4eac24\u5ea7\u5730\u94c1\u7ad9\u4f4e\u5cf0\u7968\u4ef75\u6298\u5f15\u5bfc\u4e58\u5ba2\u51fa\u884c
p298
sa(dp299
g2
S'http://politics.gmw.cn/2016-12/31/content_23382189.htm'
p300
sg4
V2016-12-31 09:23
p301
sg6
(lp302
V\u4eca\u5929\u4eac\u6e2f\u5730\u94c116\u53f7\u7ebf\u5317\u6bb5\u6b63\u5f0f\u5f00\u901a\u8bd5\u8fd0\u8425\u300216\u53f7\u7ebf\u5317\u6bb5\u5171\u8bbe10\u5ea7\u8f66\u7ad9\uff0c\u6b64\u6b21\u5f00\u901a9\u5ea7\u8f66\u7ad9\uff0c\u519c\u5927\u5357\u8def\u7ad9\u6682\u7f13\u5f00\u901a\u300214\u53f7\u7ebf\u671d\u9633\u516c\u56ed\u7ad9\u300115\u53f7\u7ebf\u671b\u4eac\u4e1c\u7ad9\u540c\u6b65\u5f00\u901a\u3002\u6b64\u5916\uff0c24\u5ea7\u5730\u94c1\u8f66\u7ad9\u4ece\u4eca\u5929\u5f00\u59cb\u5b9e\u65bd\u4f4e\u5cf05\u6298\u4f18\u60e0\u7968\u4ef7\uff0c7\u70b9\u524d\u5237\u5361\u8fdb\u7ad9\u4e58\u8f66\u53ea\u9700\u8981\u534a\u4ef7\u3002
p303
aV12\u670831\u65e5\uff0c\u4eac\u6e2f\u5730\u94c116\u53f7\u7ebf\u5317\u6bb5\u6b63\u5f0f\u5f00\u901a\u8bd5\u8fd0\u8425\u300216\u53f7\u7ebf\u5317\u6bb5\u5171\u8bbe10\u5ea7\u8f66\u7ad9\uff0c\u81ea\u5317\u5411\u5357\u5206\u522b\u662f\u5317\u5b89\u6cb3\u7ad9\u3001\u6e29\u9633\u8def\u7ad9\u3001\u7a3b\u9999\u6e56\u8def\u7ad9\u3001\u5c6f\u4f43\u7ad9\u3001\u6c38\u4e30\u7ad9\u3001\u6c38\u4e30\u5357\u7ad9\u3001\u897f\u5317\u65fa\u7ad9\u3001\u9a6c\u8fde\u6d3c\u7ad9\u3001\u519c\u5927\u5357\u8def\u7ad9\u548c\u897f\u82d1\u7ad9\uff0c\u6b64\u6b21\u5f00\u901a9\u5ea7\u8f66\u7ad9\uff0c\u519c\u5927\u5357\u8def\u7ad9\u6682\u7f13\u5f00\u901a\uff0c\u897f\u82d1\u7ad9\u53ef\u5b9e\u73b016\u53f7\u7ebf\u4e0e4\u53f7\u7ebf\u7684\u6362\u4e58\u3002
p304
aV16\u53f7\u7ebf\u897f\u82d1\u7ad9\u662f\u6b64\u6b21\u7ebf\u8def\u5f00\u901a\u65f6\u552f\u4e00\u4e00\u5ea7\u6362\u4e58\u8f66\u7ad9\uff0c\u8be5\u7ad9\u901a\u8fc7\u4e24\u67616\u7c73\u5bbd\u3001120\u7c73\u957f\u7684Y\u5b57\u5f62\u6362\u4e58\u901a\u9053\u201c\u7275\u624b\u201d4\u53f7\u7ebf\uff0c\u4e58\u5ba2\u6b63\u5e38\u60c5\u51b5\u4e0b3\u5206\u949f\u5373\u53ef\u5b9e\u73b0\u4e24\u7ebf\u6362\u4e58\u3002
p305
aV14\u53f7\u7ebf\u671d\u9633\u516c\u56ed\u7ad9\u300115\u53f7\u7ebf\u671b\u4eac\u4e1c\u7ad9\u4eca\u591c\u4e5f\u6b63\u5f0f\u5f00\u901a\u3002\u671d\u9633\u516c\u56ed\u7ad9\u4f4d\u4e8e\u671d\u9633\u533a\u671d\u9633\u516c\u56ed\u5357\u8def\u548c\u751c\u6c34\u56ed\u8857\u4ea4\u4f1a\u5904\uff0c\u7d27\u90bb\u671d\u9633\u516c\u56ed\uff0c\u8f66\u7ad9\u5468\u8fb9\u6709\u4e2d\u592e\u5e7f\u573a\u3001\u51e4\u51f0\u56fd\u9645\u4f20\u5a92\u4e2d\u5fc3\u3001\u91d1\u53f0\u827a\u672f\u9986\u3001\u68d5\u6988\u6cc9\u56fd\u9645\u516c\u5bd3\u3001\u90e1\u738b\u5e9c\u6e38\u6cf3\u9986\u7b49\u573a\u6240\u3002\u671d\u9633\u516c\u56ed\u7ad9\u7684\u5f00\u901a\uff0c\u5c06\u65b9\u4fbf\u53bb\u5f80\u671d\u9633\u516c\u56ed\u7684\u4e58\u5ba2\uff0c\u5e76\u5c06\u6709\u6548\u7f13\u89e3\u671d\u9633\u516c\u56ed\u9644\u8fd1\u7684\u8def\u9762\u4ea4\u901a\u538b\u529b\u3002
p306
aV\u672a\u6765\uff0c16\u53f7\u7ebf\u5317\u6bb5\u7684\u5f00\u901a\u5c06\u65b9\u4fbf\u6d77\u6dc0\u5c71\u540e\u5730\u533a\u5c45\u6c11\u7684\u51fa\u884c\uff0c\u9884\u8ba1\u5317\u5b89\u6cb3\u5730\u533a\u7684\u5c45\u6c11\u53bb\u5f80\u57ce\u533a\u7684\u65f6\u95f4\u5c06\u7f29\u77ed1\u5c0f\u65f6\uff1b\u540c\u65f6\uff0c\u5317\u6bb5\u7684\u5f00\u901a\u8fd8\u5c06\u7f13\u89e3\u6cbf\u7ebf\u5730\u9762\u4ea4\u901a\u7684\u538b\u529b\uff0c\u6539\u5584\u897f\u5317\u90e8\u7684\u4ea4\u901a\u72b6\u51b5\u3002
p307
aV\u9996\u6b21\u5728\u5317\u4eac\u5e02\u8f68\u9053\u4ea4\u901a\u7ebf\u8def\u4e2d\u201c\u670d\u5f79\u201d\u76848\u8282\u7f16\u7ec4A\u578b\u5217\u8f66\uff0c\u6bcf\u8282\u8f66\u53a2\u957f\u5ea6\u8fbe22\u7c73\u3001\u5bbd3\u7c73\uff0c\u6bcf\u5217\u5217\u8f66\u75318\u8282\u8f66\u53a2\u6784\u6210\u30028A\u578b\u5217\u8f66\u989d\u5b9a\u8f7d\u5ba2\u91cf\u4e3a2480\u4eba\uff0c\u6bd4\u989d\u5b9a\u8f7d\u5ba2\u91cf1408\u4eba\u76846B\u578b\u5217\u8f66\u8fd0\u80fd\u63d0\u534776%\uff0c\u6bd4\u989d\u5b9a\u8f7d\u5ba2\u91cf1860\u4eba\u76846A\u578b\u5217\u8f66\u8fd0\u80fd\u63d0\u534733%\u3002
p308
aV2017\u5e74\uff0c16\u53f7\u7ebf\u5317\u6bb5\u65e5\u5747\u5ba2\u8fd0\u91cf\u9884\u8ba1\u4e3a8\u4e07\u4eba\u6b21\uff0c\u4ece\u6784\u6210\u4e0a\u770b\u4ee5\u901a\u52e4\u5ba2\u6d41\u4e3a\u4e3b\u3002\u5f00\u901a\u8bd5\u8fd0\u8425\u521d\u671f\uff0c\u884c\u8f66\u95f4\u9694\u4e3a8\u5206\u949f\u3002\u9884\u8ba1\u5f00\u901a\u521d\u671f16\u53f7\u7ebf\u897f\u82d1\u7ad9\u65e5\u5747\u5ba2\u6d41\u7ea6\u4e3a5.6\u4e07\u4eba\u6b21\uff0c\u5176\u4e2d\u6362\u4e58\u5ba2\u6d41\u7ea6\u4e3a4.3\u4e07\u4eba\u6b21\u3002\u53e6\u5916\uff0c16\u53f7\u7ebf\u5317\u6bb5\u6c38\u4e30\u7ad9\u9760\u8fd1\u591a\u4e2a\u9ad8\u79d1\u6280\u4ea7\u4e1a\u56ed\u533a\uff0c\u65e5\u5747\u5ba2\u6d41\u91cf\u7ea6\u4e3a2.7\u4e07\u4eba\u6b21\u3002
p309
aV24\u5ea7\u5730\u94c1\u8f66\u7ad9\u5b9e\u884c\u4f4e\u5cf0\u7968\u4ef7
p310
aV\u636e\u5e02\u4ea4\u901a\u59d4\u4ecb\u7ecd\uff0c\u4e3a\u8fdb\u4e00\u6b65\u7f13\u89e3\u5317\u4eac\u5730\u94c1\u7684\u65e9\u9ad8\u5cf0\u62e5\u6324\u72b6\u51b5\uff0c\u9f13\u52b1\u4e58\u5ba2\u9519\u5cf0\u51fa\u884c\uff0c\u5c06\u5728\u4eca\u5e74\u5e74\u5e95\u65b0\u7ebf\u5f00\u901a\u65f6\uff0c\u5728\u65e2\u6709\u516b\u901a\u7ebf\u3001\u660c\u5e73\u7ebf\u4f18\u60e0\u65b9\u6848\u57fa\u7840\u4e0a\uff0c\u589e\u52a06\u53f7\u7ebf\u5317\u8fd0\u6cb3\u897f\u7ad9\u81f3\u9752\u5e74\u8def\u7ad98\u5ea7\u8f66\u7ad9\u5b9e\u65bd\u4f4e\u5cf0\u4f18\u60e0\uff0c\u5e76\u5c06\u4f18\u60e0\u5e45\u5ea6\u75317\u6298\u8c03\u6574\u81f35\u6298\u3002\u5e02\u6c11\u57287\u70b9\u524d\u5237\u5361\u8fdb\u516524\u5ea7\u8f66\u7ad9\u53ef\u4eab\u53d75\u6298\u4f18\u60e0\uff0c\u4e14\u5728\u4e00\u5361\u901a\u539f\u6709\u4f18\u60e0\u57fa\u7840\u4e0a\u7d2f\u79ef\u3002\u4f46\u9700\u8981\u6ce8\u610f\u7684\u662f\u9047\u5230\u7a81\u53d1\u60c5\u51b5\uff0c\u4f4e\u5cf0\u4f18\u60e0\u65e0\u6548\u3002
p311
aV\u5177\u4f53\u8f66\u7ad9\u4e3a\uff1a\u516b\u901a\u7ebf\u571f\u6865\u3001\u4e34\u6cb3\u91cc\u3001\u68a8\u56ed\u3001\u4e5d\u68f5\u6811\u3001\u679c\u56ed\u3001\u901a\u5dde\u5317\u82d1\u3001\u516b\u91cc\u6865\u3001\u7ba1\u5e84\u3001\u53cc\u6865\u3001\u4f20\u5a92\u5927\u5b66\u3001\u9ad8\u7891\u5e9711\u5ea7\u8f66\u7ad9\uff1b\u660c\u5e73\u7ebf\u5357\u90b5\u3001\u6c99\u6cb3\u9ad8\u6559\u56ed\u3001\u6c99\u6cb3\u3001\u5de9\u534e\u57ce\u3001\u6731\u8f9b\u5e845\u5ea7\u8f66\u7ad9\uff1b6\u53f7\u7ebf\u5317\u8fd0\u6cb3\u897f\u3001\u901a\u5dde\u5317\u5173\u3001\u7269\u8d44\u5b66\u9662\u8def\u3001\u8349\u623f\u3001\u5e38\u8425\u3001\u9ec4\u6e20\u3001\u8921\u88e2\u5761\u3001\u9752\u5e74\u8def8\u5ea7\u8f66\u7ad9\u3002\u6587/\u8bb0\u8005\u5218\u73dc
p312
asg19
V\u5317\u4eac24\u5ea7\u5730\u94c1\u7ad9\u4f4e\u5cf0\u7968\u4ef7\u4f18\u60e0\u5e45\u5ea6\u4eca\u8d77\u8c03\u81f35\u6298
p313
sa(dp314
g2
S'http://news.gmw.cn/2016-10/31/content_22729143.htm'
p315
sg4
V2016-10-31 03:15
p316
sg6
(lp317
V\u5173\u952e\u8bcd\uff1a\u201c\u4e91\u201d\u4e0a\u8d2d\u7968\u6696\u5fc3\u8001\u5e08\u963f\u91cc\u201c\u98de\u732a\u201d\u89c6\u9891\u793e\u4ea4
p318
aV\u81ea10\u670831\u65e5\u8d77\uff0c\u4e58\u5750\u4e0a\u6d77\u5730\u94c1\u7684\u4e58\u5ba2\u53ef\u4ee5\u4f7f\u7528\u201c\u652f\u4ed8\u5b9d\u201d\u6216\u201c\u4ed8\u8d39\u901a\u201dAPP\u5728\u7ebf\u652f\u4ed8\u8d2d\u7968\uff0c\u800c\u4e14\u5355\u7a0b\u7968\u3001\u4e00\u65e5\u7968\u3001\u4e09\u65e5\u7968\u5747\u53ef\u4ee5\u7ebf\u4e0a\u8d2d\u4e70\uff1b\u5728\u9996\u6279\u8bd5\u70b9\u7684\u4e09\u4e2a\u5730\u94c1\u7ad9\u5185\uff0c\u4e58\u5ba2\u53ef\u4ee5\u73b0\u573a\u626b\u7801\u8d2d\u7968\uff0c\u6216\u8005\u7ebf\u4e0a\u8d2d\u7968\u3001\u73b0\u573a\u53d6\u7968\u3002\u7f51\u53cb\u201c\u96f6\u843d\u5c18\u201d\u70b9\u8d5e\uff1a\u201c\u5168\u7a0b\u4e0d\u7528\u6392\u961f\u8d2d\u7968\uff0c\u65e0\u987b\u5151\u96f6\u627e\u96f6\uff0c\u671f\u5f85\u2018\u4e91\u4e0a\u6a21\u5f0f\u2019\u5c3d\u5feb\u63a8\u5e7f\u3002\u201d
p319
aV\u98ce\u96e8\u4e2d\uff0c\u8001\u5e08\u8131\u4e0b\u897f\u88c5\u4e0a\u8863\uff0c\u5c06\u5b66\u751f\u4eec\u7684\u4f5c\u4e1a\u5305\u4f4f\uff0c\u7136\u540e\u63d0\u7740\u4f5c\u4e1a\u5306\u5306\u8d76\u5f80\u529e\u516c\u697c\u3002\u8fd9\u4e00\u5e55\uff0c\u6070\u597d\u88ab\u8eab\u540e\u7684\u8001\u5e08\u6293\u62cd\u5230\u3002\u8fd9\u5f20\u80cc\u5f71\u7167\u968f\u540e\u5728\u5fae\u4fe1\u3001\u5fae\u535a\u4e0a\u5e7f\u6cdb\u4f20\u64ad\u3002\u8fd9\u4f4d\u62ff\u8863\u670d\u62a4\u7740\u5b66\u751f\u4f5c\u4e1a\u7684\u8001\u5e08\uff0c\u662f\u6765\u81ea\u6b66\u6c49\u79d1\u6280\u5927\u5b66\u57ce\u5e02\u5b66\u966267\u5c81\u7684\u77f3\u4e39\u6797\u6559\u6388\u3002\u4ed6\u79f0\uff0c\u81ea\u5df1\u6559\u4e86\u4e00\u8f88\u5b50\u7684\u4e66\uff0c\u8fd9\u662f\u4ed6\u7684\u804c\u4e1a\u4e60\u60ef\u3002\u793e\u4ea4\u7f51\u7edc\u4e0a\uff0c\u7f51\u53cb\u7eb7\u7eb7\u4e3a\u8fd9\u4f4d\u8001\u5e08\u70b9\u8d5e\uff0c\u201c\u6b4c\u745e\u68eeQSY\u201d\u5219\u66f4\u76f4\u767d\u5730\u8868\u793a\uff0c\u60f3\u56de\u5b66\u6821\u770b\u770b\u8fd9\u4f4d\u8001\u5e08\u3002
p320
aV\u7ee7\u5929\u732b\u3001\u8682\u8681\u3001\u95f2\u9c7c\u3001\u83dc\u9e1f\u7b49\u52a8\u7269\u540d\u79f0\u540e\uff0c\u201c\u963f\u91cc\u52a8\u7269\u56ed\u201d\u53c8\u6dfb\u4e00\u4f4d\u65b0\u6210\u5458\u2014\u2014\u201c\u98de\u732a\u201d\uff0c\u8fd9\u662f\u7531\u201c\u963f\u91cc\u65c5\u884c\u53bb\u554a\u201d\u5347\u7ea7\u800c\u6765\u7684\u5168\u65b0\u54c1\u724c\uff0c\u5b9a\u4f4d\u4e3a\u9762\u5411\u5e74\u8f7b\u6d88\u8d39\u8005\u7684\u4f11\u95f2\u5ea6\u5047\u54c1\u724c\uff0c\u4ee5\u53ca\u9762\u5411\u4f01\u4e1a\u5dee\u65c5\u670d\u52a1\u7684\u963f\u91cc\u5546\u65c5\u4e1a\u52a1\u3002\u5bf9\u4e8e\u963f\u91cc\u65c5\u884c\u800c\u8a00\uff0c\u8fd9\u6b21\u66f4\u540d\u63d0\u9ad8\u8fa8\u8bc6\u5ea6\u7684\u540c\u65f6\uff0c\u4e5f\u610f\u5473\u7740\u9700\u8981\u589e\u52a0\u66f4\u591a\u6295\u5165\u3002\u7f51\u53cb\u201c\u5927\u5c0f\u624b\u201d\u8bf4\uff1a\u201c\u2018\u98de\u732a\u2019\u80fd\u5426\u771f\u7684\u5728\u98ce\u53e3\u4e0a\u98de\u8d77\u6765\uff0c\u6211\u4eec\u62ed\u76ee\u4ee5\u5f85\u3002\u201d
p321
aV\u4f9d\u9760\u201c\u9605\u540e\u5373\u711a\u201d\u529f\u80fd\u8fc5\u901f\u706b\u7206\u5168\u7403\u7684\u793e\u4ea4\u5a92\u4f53Snapchat\uff0c\u6b63\u5728\u53d1\u529b\u539f\u521b\u89c6\u9891\u9886\u57df\u3002Snapchat\u6700\u8fd1\u4e0e\u7f8e\u56fd\u4e3b\u6d41\u7535\u89c6\u53f0\u3001\u597d\u83b1\u575e\u5404\u5927\u5236\u7247\u5382\u6d3d\u8c08\u706b\u70ed\uff0c\u5e0c\u671b\u9080\u8bf7\u4ed6\u4eec\u5165\u9a7b\u5176\u5185\u5bb9\u5206\u53d1\u5e73\u53f0Discover\uff0c\u4ee5\u5f15\u5165\u66f4\u591a\u8282\u76ee\u521b\u610f\uff0c\u5236\u4f5c\u51fa\u4e13\u5c5eSnapchat\u7684\u539f\u521b\u5185\u5bb9\uff0c\u5b9e\u73b0\u81ea\u8eab\u4ece\u7eaf\u201cUGC\uff08\u7528\u6237\u751f\u4ea7\u5185\u5bb9\uff09\u201d\u6a21\u5f0f\u5411\u201cUGC+PGC\uff08\u5e73\u53f0\u751f\u4ea7\u5185\u5bb9\uff09\u201d\u6a21\u5f0f\u7684\u8f6c\u578b\u3002\u7f51\u53cb\u201c\u80e1\u4e00\u628a\u201d\u8ba4\u4e3a\uff1a\u201c\u5f15\u5165\u66f4\u591a\u5185\u5bb9\u5408\u4f5c\u4f19\u4f34\uff0c\u9664\u4e86\u63d0\u9ad8\u6f5c\u5728\u5e7f\u544a\u6536\u76ca\u5916\uff0c\u8fd8\u53ef\u4ee5\u501f\u52a9\u9ad8\u8d28\u91cf\u5185\u5bb9\u7559\u4f4f\u7528\u6237\u3002\u201d
p322
aV\u300a\u5149\u660e\u65e5\u62a5\u300b\uff082016\u5e7410\u670831\u65e509\u7248\uff09
p323
asg19
V\u65b0\u5a92\u4f53\u4e00\u65e510\u670830\u65e5\uff1a\u201c\u4e91\u201d\u4e0a\u8d2d\u7968\u6696\u5fc3\u8001\u5e08
p324
sa(dp325
g2
S'http://edu.gmw.cn/2016-11/23/content_23070710.htm'
p326
sg4
V2016-11-23 08:45
p327
sg6
(lp328
V\u4e1c\u839e\u4e00\u8eab\u9ad81.25\u7c73\u76846\u5c81\u5c0f\u5b66\u751f\u5c0f\u6850\uff08\u5316\u540d\uff09\uff0c\u968f\u540c\u7238\u7238\u7b2c\u4e00\u6b21\u4e58\u5750\u4e1c\u839e\u5730\u94c1\u65f6\uff0c\u56e0\u8fdb\u7ad9\u65f6\u672a\u4e70\u7968\uff0c\u51fa\u7ad9\u65f6\u88ab\u8981\u6c42\u6309\u7167\u51fa\u95f8\u7ad9\u7ebf\u7f51\u6700\u9ad8\u7968\u4ef7\u5168\u989d\u8865\u4ea46\u5143\u7968\u6b3e\u3002
p329
aV\u5c0f\u6850\u7684\u7236\u6bcd\u4ee3\u8868\u5c0f\u6850\u5c06\u4e1c\u839e\u5730\u94c1\u7684\u8fd0\u8425\u516c\u53f8\u4e1c\u839e\u8f68\u9053\u4ea4\u901a\u516c\u53f8\uff08\u4e0b\u79f0\u201c\u8f68\u9053\u516c\u53f8\u201d\uff09\u544a\u4e0a\u6cd5\u5ead\uff0c\u8ba4\u4e3a\u6839\u636e\u94c1\u8def\u3001\u822a\u7a7a\u3001\u5ba2\u8fd0\u7684\u89c4\u5b9a\uff0c1.2-1.5\u7c73\u7684\u513f\u7ae5\u4e58\u8f66\u5747\u80fd\u8d2d\u4e70\u534a\u4ef7\u7684\u513f\u7ae5\u7968\uff0c\u4f46\u8f68\u9053\u516c\u53f8\u53d6\u6d88\u4e86\u201c\u513f\u7ae5\u7968\u201d\u7684\u9002\u7528\u7a7a\u95f4\uff0c\u5b58\u5728\u6b67\u89c6\u5f31\u52bf\u513f\u7ae5\u7fa4\u4f53\u7684\u884c\u4e3a\u3002\u4e3a\u6b64\uff0c\u539f\u544a\u5411\u6cd5\u9662\u8bf7\u6c42\u5224\u4ee4\u8f68\u9053\u516c\u53f8\u5411\u5176\u8d54\u793c\u9053\u6b49\uff0c\u8fd4\u8fd84.5\u5143\u7968\u6b3e\u5dee\u989d\uff0c\u4ee5\u53ca\u8d54\u507f\u7ef4\u6743\u6210\u672c\u5f00\u652f1000\u5143\u3002
p330
aV\u65e5\u524d\uff0c\u8be5\u6848\u5728\u4e1c\u839e\u5e02\u7b2c\u4e00\u4eba\u6c11\u6cd5\u9662\u5f00\u5ead\u5ba1\u7406\uff0c\u5c06\u62e9\u65e5\u5ba3\u5224\u3002
p331
aV\u5ead\u5ba1\u4e2d\uff0c\u8f68\u9053\u516c\u53f8\u7b54\u8fa9\u79f0\uff0c\u4e1c\u839e\u5730\u94c1\u5e76\u672a\u8bbe\u7f6e\u513f\u7ae5\u7968\uff0c\u5176\u5730\u94c1\u7968\u4ef7\u548c\u4f18\u60e0\u653f\u7b56\u7b26\u5408\u56fd\u5bb6\u6cd5\u5f8b\u89c4\u5b9a\uff0c\u94c1\u8def\u3001\u822a\u7a7a\u3001\u5ba2\u8fd0\u7684\u89c4\u5b9a\u4e0e\u57ce\u5e02\u8f68\u9053\u4ea4\u901a\u65e0\u5173\u3002
p332
aV\u6848\u60c5\uff1a\u5c0f\u5b69\u8eab\u9ad81.25\u7c73\u88ab\u8981\u6c42\u8865\u5168\u7968
p333
aV\u4eca\u5e749\u670824\u65e5\u4e0a\u53489\u65f6\u8bb8\uff0c\u5f90\u5148\u751f\u548c\u5b69\u5b50\u5c0f\u6850\u4e00\u8d77\u7b2c\u4e00\u6b21\u4e58\u5750\u4e1c\u839e\u5e02\u8f68\u9053\u4ea4\u901a2\u53f7\u7ebf\uff0c\u4ece\u5357\u57ce\u201c\u86e4\u5730\u7ad9\u201d\u524d\u5f80\u201c\u65d7\u5cf0\u516c\u56ed\u7ad9\u201d\uff0c\u5355\u7a0b\u7968\u4ef73\u5143\u3002\u5c0f\u6850\u548c\u7236\u4eb2\u4ece\u201c\u86e4\u5730\u7ad9\u201d\u5b89\u68c0\u548c\u5165\u95f8\uff0c\u987a\u5229\u767b\u8f66\u3002\u4f46\u5728\u201c\u65d7\u5cf0\u516c\u56ed\u7ad9\u201d\u51fa\u7ad9\u671f\u95f4\uff0c\u5c0f\u6850\u88ab\u4e00\u540d\u5b89\u68c0\u4eba\u5458\u963b\u62e6\uff0c\u79f0\u6839\u636e\u76f8\u5173\u89c4\u5b9a\uff0c\u8d85\u8fc71.2\u7c73\u7684\u513f\u7ae5\uff0c\u9664\u975e\u662f\u529e\u7406\u4e86\u5b66\u751f\u7968\u5361\u7684\u513f\u7ae5\uff0c\u5426\u5219\u9700\u8981\u8865\u7968\u3002\u5c0f\u6850\u8eab\u9ad8\u5df2\u7ecf\u8d85\u8fc71.2\u7c73\uff0c\u5e94\u8865\u7968\u3002
p334
aV\u5730\u94c1\u91cc\u7684\u53e6\u4e00\u540d\u5973\u6027\u5de5\u4f5c\u4eba\u5458\u8981\u6c42\u5f90\u5148\u751f\u529e\u7406\u8865\u7968\u624b\u7eed\uff0c\u5e76\u586b\u5199\u300a\u8f66\u7ad9\u4e58\u5ba2\u7968\u52a1\u4e8b\u52a1\u5904\u7406\u5355\u300b\uff0c\u4ee5\u201c\u65e0\u7968\u4e58\u8f66\u201d\u4e3a\u7531\u201c\u53d1\u552e6\u5143\u4ed8\u8d39\u51fa\u7ad9\u79681\u5f20\u201d\u3002
p335
aV\u5f90\u5148\u751f\u5f53\u5373\u548c\u5de5\u4f5c\u4eba\u5458\u4e89\u8fa9\uff0c\u79f0\u5bf9\u4e8e\u5c0f\u6850\u4e0d\u7b26\u5408\u514d\u8d39\u4e58\u8f66\u7684\u89c4\u5b9a\u5e76\u4e0d\u77e5\u60c5\uff0c\u5728\u201c\u86e4\u5730\u7ad9\u201d\u5b89\u68c0\u548c\u5165\u95f8\u671f\u95f4\u5de5\u4f5c\u4eba\u5458\u5e76\u672a\u63d0\u793a\u6216\u8005\u8b66\u9192\uff0c\u81ea\u5df1\u5e76\u975e\u6709\u610f\u9003\u7968\u4e3b\u89c2\u5e76\u65e0\u8fc7\u9519\u3002\u540c\u65f6\uff0c\u5f90\u5148\u751f\u63d0\u51fa\uff0c\u5b69\u5b50\u5c1a\u4e146\u5c81\uff0c\u5c5e\u4e8e\u513f\u7ae5\uff0c\u5e94\u4eab\u53d7\u513f\u7ae5\u7968\u4ef7\u3002
p336
aV\u6574\u4e2a\u8fc7\u7a0b\u7684\u4ea4\u6d89\u65f6\u95f4\u8fbe15\u5206\u949f\uff0c\u5de5\u4f5c\u4eba\u5458\u6001\u5ea6\u548c\u853c\uff0c\u4f46\u575a\u6301\u8981\u6c42\u5c0f\u6850\u8865\u9f50\u7968\u6b3e\u3002\u6700\u540e\uff0c\u5f90\u5148\u751f\u4ea4\u4e866\u5143\u7684\u7968\u6b3e\u540e\u624d\u5f97\u4ee5\u653e\u884c\u3002
p337
aV\u8f68\u9053\u516c\u53f8\uff1a\u4f18\u60e0\u653f\u7b56\u5df2\u8986\u76d6\u76f8\u5e94\u513f\u7ae5\u7fa4\u4f53
p338
aV\u5ead\u5ba1\u4e2d\uff0c\u8f68\u9053\u516c\u53f8\u7b54\u8fa9\u79f0\uff0c\u4e1c\u839e\u5730\u94c1\u5df2\u7ecf\u5206\u522b\u5728\u51fa\u5165\u53e3\u516c\u544a\u680f\u3001LED\u5c4f\u3001\u552e\u7968\u673a\u7684\u7968\u4ef7\u56fe\u7b49\u5a92\u4ecb\uff0c\u5ba3\u4f20\u5173\u4e8e\u4e00\u4eba\u4e00\u7968\u5236\u3001\u5c0f\u5b69\u8d85\u8fc71.2\u7c73\u9700\u8981\u8d2d\u7968\u7b49\u7ecf\u8425\u3001\u7968\u4ef7\u4fe1\u606f\uff0c\u5df2\u5c3d\u5230\u4e86\u544a\u77e5\u4e49\u52a1\u3002
p339
aV\u540c\u65f6\uff0c\u8f68\u9053\u516c\u53f8\u79f0\uff0c\u4e1c\u839e\u5730\u94c12\u53f7\u7ebf\u7968\u4ef7\u65b9\u6848\u53ca\u4f18\u60e0\u653f\u7b56\u7684\u5236\u5b9a\u8fc7\u7a0b\u7b26\u5408\u56fd\u5bb6\u6cd5\u5f8b\u6cd5\u89c4\u89c4\u5b9a\uff0c\u5730\u94c1\u867d\u672a\u8bbe\u7f6e\u513f\u7ae5\u7968\uff0c\u4f46\u4f18\u60e0\u653f\u7b56\u5df2\u57fa\u672c\u4e0a\u8986\u76d6\u4e86\u5e94\u4eab\u53d7\u4f18\u60e0\u7684\u513f\u7ae5\u7fa4\u4f53\uff0c\u4e0d\u5b58\u5728\u6b67\u89c6\u513f\u7ae5\u7684\u60c5\u5f62\u3002
p340
aV\u6b64\u5916\uff0c\u8f68\u9053\u516c\u53f8\u4e3b\u5f20\u5f90\u5148\u751f\u6240\u63d0\u53ca\u7684\u94c1\u8def\u3001\u822a\u7a7a\u3001\u5ba2\u8fd0\u7684\u89c4\u5b9a\u53ea\u662f\u5c5e\u4e8e\u4e0a\u8ff0\u9886\u57df\u7684\u7968\u4ef7\u89c4\u5b9a\uff0c\u5e76\u4e0d\u9002\u7528\u4e8e\u8f68\u9053\u4ea4\u901a\u9886\u57df\u3002\u6839\u636e\u5efa\u8bbe\u90e8\u53d1\u5e03\u7684\u300a\u57ce\u5e02\u8f68\u9053\u4ea4\u901a\u8fd0\u8425\u7ba1\u7406\u529e\u6cd5\u300b\u7684\u89c4\u5b9a\uff0c\u8f68\u9053\u4ea4\u901a\u7684\u7968\u4ef7\u65b9\u6848\u7531\u5f53\u5730\u4e3b\u7ba1\u90e8\u95e8\u786e\u5b9a\u5e76\u6267\u884c\u3002
p341
aV\u201c\u76ee\u524d\u56fd\u5185\u4e0a\u6d77\u3001\u5e7f\u5dde\u3001\u6df1\u5733\u3001\u4f5b\u5c71\u3001\u6c88\u9633\u7b49\u57ce\u5e02\uff0c\u9664\u6df1\u5733\u5bf91.2~1.5\u7c73\u513f\u7ae5\u7ed9\u4e88\u534a\u4ef7\u4f18\u60e0\u5916\uff0c\u5176\u4ed6\u57ce\u5e02\u57fa\u672c\u4e0a\u6267\u884c\u7684\u662f\u5b66\u751f\u7968\u534a\u4ef7\u548c\u8d85\u8fc71.1\u7c73\u30011.2\u7c73\u6216\u80051.3\u7c73\u4ee5\u4e0b\u513f\u7ae5\u514d\u7968\u7684\u7968\u4ef7\u653f\u7b56\u3002\u201d\u8f68\u9053\u516c\u53f8\u4ee3\u7406\u4eba\u8868\u793a\uff0c\u201c\u4e1c\u839e\u6267\u884c\u2018\u5b66\u751f\u529e\u7406\u76f8\u5173\u4e58\u8f66\u7968\u5361\u4eab\u53d7\u5355\u7a0b\u7968\u7968\u4ef75\u6298\u4f18\u60e0\u548c\u6bcf\u4f4d\u6210\u5e74\u4eba\u53ef\u643a\u5e26\u4e00\u540d\u8eab\u9ad81.2\u7c73\u53ca\u4ee5\u4e0b\u7684\u513f\u7ae5\u4e58\u8f66\uff0c\u8d85\u8fc7\u4e00\u540d\u6309\u8d85\u8fc7\u4eba\u6570\u8d2d\u7968\u2019\u7684\u653f\u7b56\u7b26\u5408\u6cd5\u5f8b\u6cd5\u89c4\u4ee5\u53ca\u540c\u884c\u60ef\u4f8b\u3002\u201d
p342
aV\u539f\u544a\uff1a\u53d6\u6d88\u201c\u513f\u7ae5\u7968\u201d\u4e0d\u5408\u6cd5
p343
aV\u65e5\u524d\uff0c\u8be5\u6848\u5728\u4e1c\u839e\u5e02\u7b2c\u4e00\u4eba\u6c11\u6cd5\u9662\u5f00\u5ead\u5ba1\u7406\u3002\u5ead\u4e0a\uff0c\u5f90\u5148\u751f\u589e\u52a0\u4e86\u4e00\u6761\u8bc9\u8bbc\u8bf7\u6c42\uff0c\u8bf7\u6c42\u6cd5\u9662\u5224\u4ee4\u786e\u8ba4\u8f68\u9053\u516c\u53f8\u4fb5\u72af\u4e86\u539f\u544a\u4f5c\u4e3a\u6d88\u8d39\u8005\u7684\u516c\u5e73\u4ea4\u6613\u6743\u548c\u4eba\u683c\u53d7\u5c0a\u91cd\u6743\u3002
p344
aV\u5f90\u5148\u751f\u67e5\u9605\u76f8\u5173\u89c4\u5b9a\uff0c\u53d1\u73b0\u8f68\u9053\u516c\u53f8\u5bf9\u5176\u5c0f\u5b69\u8fdb\u884c\u5168\u4ef7\u8865\u7968\u5904\u7406\u7684\u6267\u884c\u4f9d\u636e\u5e94\u8be5\u662f\u300a\u4e1c\u839e\u5e02\u57ce\u5e02\u8f68\u9053\u4ea4\u901a\u8fd0\u8425\u7ba1\u7406\u529e\u6cd5\u300b\u7b2c\u4e09\u5341\u4e00\u6761\uff08\u4e0b\u79f0\u2018\u300a\u7ba1\u7406\u529e\u6cd5\u300b\u7b2c\u4e09\u5341\u4e00\u6761\u2019\uff09\u5173\u4e8e\u201c\u4e58\u5ba2\u65e0\u7968\u4e58\u8f66\u4e00\u5f8b\u6309\u7167\u57ce\u5e02\u8f68\u9053\u4ea4\u901a\u51fa\u95f8\u7ad9\u7ebf\u7f51\u5355\u7a0b\u6700\u9ad8\u7968\u4ef7\u8865\u4ea4\u7968\u6b3e\u201d\u7684\u89c4\u5b9a\u3002
p345
aV\u5f90\u5148\u751f\u63d0\u51fa\uff0c\u4ed6\u4e0e\u5b69\u5b50\u662f\u7b2c\u4e00\u6b21\u4e58\u5750\u4e1c\u839e\u5730\u94c1\u51fa\u884c\uff0c\u5e76\u4e0d\u77e5\u9053\u5730\u94c1\u53ea\u5bf91.2\u7c73\u4ee5\u4e0b\u513f\u7ae5\u91c7\u53d6\u514d\u8d39\u63aa\u65bd\u7684\u76f8\u5173\u89c4\u5b9a\uff0c\u7ad9\u5185\u4ea6\u65e0\u5f20\u8d34\u76f8\u5173\u544a\u793a\u3002\u56e0\u6b64\uff0c\u4ed6\u8ba4\u4e3a\u81ea\u5df1\u4e3b\u89c2\u5e76\u65e0\u8fc7\u9519\uff0c\u5373\u4f7f\u5728\u51fa\u7ad9\u65f6\u7ecf\u67e5\u51fa\uff0c\u5728\u6709\u76d1\u62a4\u4eba\u540c\u884c\u7684\u60c5\u5f62\u4e0b\uff0c\u4e88\u4ee5\u76f8\u5e94\u7684\u8865\u7968\u5373\u53ef\u3002\u201c\u6211\u5c0f\u5b69\u624d6\u5c81\uff0c\u5de5\u4f5c\u4eba\u5458\u53ef\u4ee5\u63a8\u65ad\u51fa\u5b69\u5b50\u662f\u8ddf\u6211\u4e00\u8d77\u8fdb\u7ad9\u7684\uff0c\u5c31\u7b97\u8981\u6c42\u6211\u5b69\u5b50\u8865\u7968\uff0c\u5168\u7968\u4e5f\u5e94\u8be5\u662f3\u5143\u3002\u201d\u5176\u6b21\uff0c\u8f68\u9053\u516c\u53f8\u5bf9\u5176\u5c0f\u5b69\u5b9e\u65bd\u8865\u7968\u5904\u7406\u65f6\uff0c\u6ca1\u6709\u533a\u5206\u201c\u513f\u7ae5\u7968\u201d\u548c\u201c\u6210\u4eba\u7968\u201d\uff0c\u663e\u7136\u6b67\u89c6\u5f31\u52bf\u513f\u7ae5\u7fa4\u4f53\u3002
p346
aV\u5f90\u5148\u751f\u8868\u793a\uff0c\u6839\u636e\u94c1\u8def\u3001\u822a\u7a7a\u3001\u5ba2\u8fd0\u7684\u76f8\u5173\u89c4\u5b9a\uff1a\u968f\u540c\u6210\u4eba\u65c5\u884c\u8eab\u9ad81.2~1.5\u7c73\u7684\u513f\u7ae5\uff0c\u4eab\u53d7\u534a\u4ef7\u4f18\u60e0\uff08\u4ee5\u4e0b\u7b80\u79f0\u201c\u513f\u7ae5\u7968\u201d\uff09\u3002\u201c\u4e1c\u839e\u5730\u94c1\u53ea\u6709\u5bf9\u4e8e1.2\u7c73\u4ee5\u4e0b\u513f\u7ae5\u7ed9\u4e88\u514d\u7968\u548c\u5bf9\u4e1c\u839e\u6237\u7c4d\u5728\u6821\u5b66\u751f\u7ed9\u4e88\u534a\u4ef7\u7968\u7684\u4f18\u60e0\uff0c\u4f46\u5c06\u8eab\u9ad8\u57281.2~1.5\u7c73\u4e4b\u95f4\u5374\u672a\u5165\u5b66\u4ee5\u53ca\u5728\u5916\u5730\u4e0a\u5b66\u7684\u513f\u7ae5\u6392\u9664\u5728\u5916\u3002\u201d\u5f90\u5148\u751f\u8ba4\u4e3a\uff0c\u201c\u5982\u679c\u662f\u6309\u7167\u513f\u7ae5\u7968\u6807\u51c6\u8fdb\u884c\u8865\u7968\u5904\u7406\uff0c\u90a3\u4e5f\u5e94\u8be5\u662f3\u5143\u7684\u534a\u4ef7\uff0c\u4e5f\u5c31\u662f1.5\u5143\uff0c\u800c\u4e0d\u662f6\u5143\uff0c\u6240\u4ee5\u8f68\u9053\u516c\u53f8\u5e94\u8be5\u9000\u8fd8\u62114.5\u5143\u3002\u201d
p347
aV\u636e\u6b64\uff0c\u5f90\u5148\u751f\u8ba4\u4e3a\uff0c\u300a\u7ba1\u7406\u529e\u6cd5\u300b\u7b2c\u4e09\u5341\u4e00\u6761\u89c4\u5b9a\u672a\u533a\u5206\u4e58\u5ba2\u6027\u8d28\u3001\u65e0\u7968\u539f\u56e0\uff0c\u53d6\u6d88\u4e86\u201c\u513f\u7ae5\u7968\u201d\u7684\u9002\u7528\u7a7a\u95f4\uff0c\u5e94\u5c5e\u65e0\u6548\u3002
p348
asg19
V\u4e1c\u839e\u4e006\u5c81\u5c0f\u5b66\u751f\u72b6\u544a\u5730\u94c1\u8981\u6c42\u8fd4\u8fd84.5\u5143\u7968\u6b3e
p349
sa(dp350
g2
S'http://v.gmw.cn/2013-11/12/content_9460331_2.htm'
p351
sg4
V2013-11-12 10:55
p352
sg6
(lp353
V\u8fd1\u65e5\u83ab\u65af\u79d1\u4e00\u4e2a\u5730\u94c1\u7ad9\u91cc\u51fa\u73b0\u4e86\u4e00\u53f0\u7279\u6b8a\u7684\u81ea\u52a8\u8d29\u5356\u673a,\u4efb\u4f55\u4eba\u53ea\u8981\u5728\u8fd9\u4e2a\u8d29\u5356\u673a\u524d\u8fde\u7eed\u505a30\u4e2a\u8e72\u8d77\u7684\u52a8\u4f5c,\u5c31\u80fd\u201c\u8d62\u5f97\u201d\u4e00\u5f20\u8f66\u7968,\u514d\u8d39\u4e58\u5730\u94c1\u3002
p354
asg19
V\u4fc4\u7f57\u65af\uff1a\u8fde\u7eed\u8e72\u8d7730\u6b21\u514d\u8d39\u5f97\u7968\u4e58\u5730\u94c1
p355
sa(dp356
g2
S'http://imgmib.gmw.cn/politics/2017-12/07/content_27030368.htm'
p357
sg4
V2017-12-07 08:35
p358
sg6
(lp359
V\u7f51\u552e\u516c\u4ea4\u5185\u90e8\u5361\u5b9e\u4e3a\u514b\u9686\u5c5e\u8fdd\u6cd5
p360
aV\u82b1\u51e0\u767e\u5143\u5c31\u80fd\u6bcf\u6708\u5750200\u6b21\u5730\u94c1\uff0c\u5728\u516c\u4ea4\u8f66\u4e0a\u7545\u901a\u65e0\u963b\uff1f\u8fd1\u65e5\uff0c\u7f51\u4e0a\u51fa\u73b0\u4e0d\u5c11\u516c\u4ea4\u96c6\u56e2\u201c\u5185\u90e8\u5458\u5de5\u5361\u201d\u660e\u7801\u6807\u4ef7\u552e\u5356\u3002\u8bb0\u8005\u8c03\u67e5\u53d1\u73b0\uff0c\u8be5\u73b0\u8c61\u5df2\u5f62\u6210\u6210\u719f\u4ea4\u6613\u94fe\uff0c\u5236\u5361\u8005\u548c\u5356\u5bb6\u7ebf\u4e0a\u4ea4\u6613\uff0c\u96be\u4ee5\u8ffd\u67e5\uff0c\u5356\u5bb6\u548c\u4e70\u5bb6\u7ebf\u4e0b\u4ea4\u6613\uff0c\u53f7\u79f0\u53ef\u63d0\u4f9b\u73b0\u573a\u9a8c\u7968\u670d\u52a1\uff0c\u751a\u81f3\u8fd8\u6709\u5356\u5bb6\u516c\u7136\u62db\u63fd\u4e0b\u7ea7\u4ee3\u7406\u3002\u6240\u8c13\u5185\u90e8\u5361\u5b9e\u4e3a\u201c\u514b\u9686\u5361\u201d\uff0c\u5356\u5bb6\u58f0\u79f0\u53ef\u4f7f\u7528\u4e09\u5e74\uff0c\u4f46\u6709\u4eba\u4f7f\u7528\u4e0d\u8db3\u4e24\u6708\u540e\u5c31\u88ab\u5c01\u53f7\u3002\u5bf9\u6b64\uff0c\u5317\u4eac\u516c\u4ea4\u96c6\u56e2\u5de5\u4f5c\u4eba\u5458\u8868\u793a\uff0c\u6b64\u4e3e\u4e3a\u53d8\u76f8\u9003\u7968\u884c\u4e3a\uff0c\u88ab\u53d1\u73b0\u540e\u4f1a\u53ca\u65f6\u5236\u6b62\u4e3e\u62a5\u3002\u5f8b\u5e08\u8868\u793a\uff0c\u4f2a\u9020\u3001\u5012\u5356\u201c\u514b\u9686\u5361\u201d\u5c5e\u8fdd\u6cd5\uff0c\u6570\u989d\u8f83\u5927\u3001\u60c5\u8282\u4e25\u91cd\u8005\u53ef\u5165\u5211\u3002
p361
aV\u7f51\u552e\u5927\u91cf\u516c\u4ea4\u5185\u90e8\u201c\u5458\u5de5\u5361\u201d
p362
aV\u201c\u5317\u4eac\u4e0a\u73ed\u65cf\u7684\u798f\u5229\uff01\u52b2\u7206\u597d\u6d88\u606f\uff0c\u53ef\u529e\u7406\u5730\u94c1\u5458\u5de5\u5361\uff0c\u6709\u6548\u671f\u52302020\u5e7410\u6708\uff0c\u6bcf\u4e2a\u6708\u53ef\u5237200\u6b21\u5730\u94c1\uff0c\u516c\u4ea4\u5168\u90e8\u514d\u8d39\uff01\u201d\u8fd1\u65e5\u6709\u8bfb\u8005\u7206\u6599\uff0c\u5728\u4e00\u4e9b\u4e8c\u624b\u4ea4\u6613\u5e73\u53f0\u641c\u7d22\u201c\u5317\u4eac\u201d\u3001\u201c\u4e00\u5361\u901a\u201d\u7b49\u5173\u952e\u8bcd\uff0c\u4f1a\u51fa\u73b0\u591a\u6761\u7c7b\u4f3c\u552e\u5356\u4fe1\u606f\u3002
p363
aV\u8bb0\u8005\u8c03\u67e5\u53d1\u73b0\uff0c\u8fd9\u4e9b\u4fe1\u606f\u53f7\u79f0\u552e\u5356\u201c\u5458\u5de5\u5361\u201d\uff0c\u53eb\u4ef7\u4ece\u51e0\u767e\u5143\u81f3\u4e24\u5343\u591a\u5143\u4e0d\u7b49\u3002\u4e0e\u666e\u901a\u7684\u5e02\u653f\u516c\u4ea4\u4e00\u5361\u901a\u5916\u89c2\u4e0d\u540c\uff0c\u8fd9\u4e9b\u5361\u591a\u4e3a\u5f62\u6001\u5404\u5f02\u7684\u6ef4\u80f6\u5361\uff0c\u6216\u8d34\u7740\u52a8\u6f2b\u56fe\u6848\u7684\u78c1\u5361\u3002\u5356\u5bb6\u58f0\u79f0\uff0c\u6301\u6709\u8be5\u5361\u6bcf\u4e2a\u6708\u53ef\u4e58\u5750\u5730\u94c1200\u6b21\uff0c\u65e0\u9650\u91cf\u4e58\u5750\u516c\u4ea4\u8f66\u3002\u5728\u591a\u6761\u552e\u5356\u4fe1\u606f\u4e0b\uff0c\u90fd\u6709\u4eba\u8be2\u95ee\u4ef7\u683c\u53ca\u5982\u4f55\u201c\u9a8c\u8d27\u201d\u3002
p364
aV\u5728\u4e00\u901a\u8fc7\u5b9e\u540d\u8ba4\u8bc1\u7684\u5356\u5bb6\u53d1\u5e03\u552e\u5356\u4fe1\u606f\u4e2d\uff0c\u8bb0\u8005\u770b\u5230\uff0c\u4ed6\u572811\u670820\u65e5\u53d1\u5e03\u7684\u201c\u5185\u90e8\u5458\u5de5\u5361\u201d\u552e\u4ef7\u4e3a1600\u5143\uff0c\u81f312\u67084\u65e5\uff0c\u8fd9\u6761\u4fe1\u606f\u5df2\u88ab\u6d4f\u89c8859\u6b21\uff0c11\u4eba\u7559\u8a00\u54a8\u8be2\u3002\u5728\u8be6\u7ec6\u7684\u5546\u54c1\u4fe1\u606f\u4e2d\uff0c\u4e00\u5f20\u7ad9\u53f0\u67e5\u8be2\u673a\u7167\u7247\u663e\u793a\u8be5\u7968\u79cd\u4e3a\u201c\u5458\u5de5\u5361\u201d\uff0c\u6709\u6548\u671f\u81f32020\u5e7410\u670815\u65e5\uff0c\u5269\u4f59196\u6b21\uff0c\u4e0a\u6b21\u4ea4\u6613\u65f6\u95f411\u670817\u65e5\u3002\u5356\u5bb6\u8fd8\u7279\u522b\u5bf9\u7528\u5361\u505a\u4e86\u201c\u6ce8\u610f\u4e8b\u9879\u201d\uff0c\u201c\u673a\u573a\u7ebf\u4e0d\u80fd\u5750\uff0c\u8fd0\u901a\u4e0d\u80fd\u5750\uff0c\u90ca\u533a\u672c\u5730\u516c\u4ea4\u4e0d\u884c\u3002\u201d\u5bf9\u4e8e\u90e8\u5206\u4e70\u5bb6\u662f\u5426\u9760\u8c31\u7684\u8d28\u7591\uff0c\u5356\u5bb6\u58f0\u79f0\uff0c\u5728\u5730\u94c1\u5185\u90e8\u201c\u6709\u6e20\u9053\u201d\uff0c\u5e76\u627f\u8bfa\u201c\u4fdd\u8bc1\u65e0\u4efb\u4f55\u95ee\u9898\uff0c\u53ef\u5f53\u9762\u9a8c\u8d27\u4ea4\u6613\u201d\u3002
p365
aV\u6b64\u5916\uff0c\u8bb0\u8005\u53d1\u73b0\u5728\u5fae\u4fe1\u5e73\u53f0\u4e5f\u6709\u6240\u8c13\u8fd9\u79cd\u201c\u5458\u5de5\u5361\u201d\u4ea4\u6613\u3002\u5e02\u6c11\u5c0f\u674e\u544a\u8bc9\u5317\u4eac\u6668\u62a5\u8bb0\u8005\uff0c\u5979\u8fd1\u65e5\u5c31\u6536\u5230\u670b\u53cb\u5708\u4e00\u6761\u4fe1\u606f\u63a8\u9500\u201c\u5458\u5de5\u5361\u201d\uff0c\u5bf9\u65b9\u8fd8\u63d0\u793a\uff1a\u201c\u5207\u8bb0\uff0c\u5982\u679c\u7528\u5361\u9047\u5230\u95ee\u9898\uff0c\u4e0d\u8981\u627e\u5730\u94c1\u7684\u5de5\u4f5c\u4eba\u5458\u89e3\u51b3\uff0c\u53ca\u65f6\u8054\u7cfb\u6211\u4eec\u3002\u4e07\u4e00\u6709\u4eba\u95ee\u4f60\uff0c\u5c31\u8bf4\u662f\u6361\u5230\u7684\u3002\u201d
p366
aV\u4eac\u8861\u4e0a\u6d77\u4e8b\u52a1\u6240\u5f8b\u5e08\u4f59\u8d85\u79f0\uff0c\u4f2a\u9020\u3001\u5012\u5356\u201c\u5458\u5de5\u5361\u201d\u53ef\u4ee5\u6839\u636e\u300a\u6cbb\u5b89\u7ba1\u7406\u5904\u7f5a\u6cd5\u300b\u7b2c\u4e94\u5341\u4e8c\u6761\u89c4\u5b9a\u8fdb\u884c\u5904\u7f5a\u3002\u201c\u4f2a\u9020\u3001\u53d8\u9020\u3001\u5012\u5356\u8f66\u7968\u3001\u8239\u7968\u3001\u822a\u7a7a\u5ba2\u7968\u3001\u6587\u827a\u6f14\u51fa\u7968\u3001\u4f53\u80b2\u6bd4\u8d5b\u5165\u573a\u5238\u6216\u8005\u5176\u4ed6\u6709\u4ef7\u7968\u8bc1\u3001\u51ed\u8bc1\u7684\uff0c\u5904\u5341\u65e5\u4ee5\u4e0a\u5341\u4e94\u65e5\u4ee5\u4e0b\u62d8\u7559\uff0c\u53ef\u4ee5\u5e76\u5904\u4e00\u5343\u5143\u4ee5\u4e0b\u7f5a\u6b3e\uff1b\u60c5\u8282\u8f83\u8f7b\u8005\uff0c\u5904\u4e94\u65e5\u4ee5\u4e0a\u5341\u65e5\u4ee5\u4e0b\u62d8\u7559\uff0c\u53ef\u4ee5\u5e76\u5904\u4e94\u767e\u5143\u4ee5\u4e0b\u7f5a\u6b3e\u3002\u201d
p367
aV\u4f59\u5f8b\u5e08\u8868\u793a\uff0c\u5982\u679c\u4f2a\u9020\u3001\u5012\u5356\u6570\u989d\u8f83\u5927\u7684\uff0c\u8fd8\u53ef\u80fd\u6784\u6210\u4f2a\u9020\u3001\u5012\u5356\u4f2a\u9020\u6709\u4ef7\u7968\u8bc1\u7f6a\u3002\u6839\u636e\u5211\u4e8b\u6848\u4ef6\u7acb\u6848\u8ffd\u8bc9\u6807\u51c6\u7684\u76f8\u5173\u89c4\u5b9a\uff0c\u4f2a\u9020\u6216\u8005\u5012\u5356\u4f2a\u9020\u7684\u8f66\u7968\u3001\u8239\u7968\u3001\u90ae\u7968\u6216\u8005\u5176\u4ed6\u6709\u4ef7\u7968\u8bc1\uff0c\u6d89\u5acc\u8f66\u7968\u3001\u8239\u7968\u7968\u9762\u6570\u989d\u7d2f\u8ba1\u4e8c\u5343\u5143\u4ee5\u4e0a\uff0c\u6216\u8005\u6570\u91cf\u7d2f\u8ba1\u4e94\u5341\u5f20\u4ee5\u4e0a\u7684\uff1b\u90ae\u7968\u7968\u9762\u6570\u989d\u7d2f\u8ba1\u4e94\u5343\u5143\u4ee5\u4e0a\uff0c\u6216\u8005\u6570\u91cf\u7d2f\u8ba1\u4e00\u5343\u679a\u4ee5\u4e0a\u7684\uff1b\u5176\u4ed6\u6709\u4ef7\u7968\u8bc1\u4ef7\u989d\u7d2f\u8ba1\u4e94\u5343\u5143\u4ee5\u4e0a\uff0c\u6216\u8005\u6570\u91cf\u7d2f\u8ba1\u4e00\u767e\u5f20\u4ee5\u4e0a\u7684\uff1b\u975e\u6cd5\u83b7\u5229\u7d2f\u8ba1\u4e00\u5343\u5143\u4ee5\u4e0a\u7684\uff1b\u5176\u4ed6\u6570\u989d\u8f83\u5927\u7684\u60c5\u5f62\uff0c\u5e94\u4e88\u7acb\u6848\u8ffd\u8bc9\u3002
p368
aV\u201c\u6839\u636e\u300a\u5211\u6cd5\u300b\u7b2c\u4e8c\u767e\u4e8c\u5341\u4e03\u6761\uff0c\u4f2a\u9020\u6216\u8005\u5012\u5356\u4f2a\u9020\u7684\u8f66\u7968\u3001\u8239\u7968\u3001\u90ae\u7968\u6216\u8005\u5176\u4ed6\u6709\u4ef7\u7968\u8bc1\uff0c\u6570\u989d\u8f83\u5927\u7684\uff0c\u5904\u4e8c\u5e74\u4ee5\u4e0b\u6709\u671f\u5f92\u5211\u3001\u62d8\u5f79\u6216\u8005\u7ba1\u5236\uff0c\u5e76\u5904\u6216\u8005\u5355\u5904\u7968\u8bc1\u4ef7\u989d\u4e00\u500d\u4ee5\u4e0a\u4e94\u500d\u4ee5\u4e0b\u7f5a\u91d1\uff1b\u6570\u989d\u5de8\u5927\u7684\uff0c\u5904\u4e8c\u5e74\u4ee5\u4e0a\u4e03\u5e74\u4ee5\u4e0b\u6709\u671f\u5f92\u5211\uff0c\u5e76\u5904\u7968\u8bc1\u4ef7\u989d\u4e00\u500d\u4ee5\u4e0a\u4e94\u500d\u4ee5\u4e0b\u7f5a\u91d1\u3002\u201d\u4f59\u8d85\u5f8b\u5e08\u89e3\u91ca\u3002\u800c\u5bf9\u4e8e\u660e\u77e5\u662f\u4f2a\u9020\u5361\u800c\u4f7f\u7528\u7684\u884c\u4e3a\u662f\u9003\u7968\u884c\u4e3a\uff0c\u4f59\u5f8b\u5e08\u8ba4\u4e3a\uff0c\u53ef\u4ee5\u8981\u6c42\u9003\u7968\u8005\u8865\u4ea4\u7968\u6b3e\uff0c\u6216\u6309\u7167\u89c4\u5b9a\u52a0\u6536\u7968\u6b3e\u3002
p369
aV\u8bb0\u8005\u968f\u5373\u4ee5\u8d2d\u4e70\u8005\u8eab\u4efd\u6dfb\u52a0\u4e86\u5411\u5c0f\u674e\u63a8\u9500\u7684\u5fae\u4fe1\u5356\u5bb6\uff0c\u5176\u670b\u53cb\u5708\u679c\u7136\u6b63\u5728\u63a8\u9500\u4f7f\u7528\u671f\u4e3a\u4e09\u5e74\u7684\u201c\u5458\u5de5\u5361\u201d\uff0c\u4ecb\u7ecd\u8be5\u5361\u4e3a\u516c\u4ea4\u516c\u53f8\u5185\u90e8\u53d1\u552e\uff0c\u552e\u4ef72700\u5143\u4e00\u5f20\uff0c\u8d2d\u4e705\u5f20\u6709\u4f18\u60e0\u3002\u6c9f\u901a\u4e2d\uff0c\u5bf9\u65b9\u5766\u8a00\uff0c\u5979\u6700\u521d\u4e5f\u662f\u4e00\u4e2a\u4e70\u5bb6\uff0c\u201c\u6211\u662f\u81ea\u5df1\u89c9\u5f97\u597d\u7528\u624d\u62ff\u51fa\u6765\u548c\u5927\u5bb6\u5206\u4eab\u3002\u4e0d\u8fc7\u8fd9\u5361\u5982\u679c\u4e22\u4e86\u6ca1\u6cd5\u8865\u529e\uff0c\u5185\u90e8\u5361\uff0c\u4f60\u61c2\u7684\u3002\u201d
p370
aV\u8bb0\u8005\u53c8\u901a\u8fc7\u4e8c\u624b\u4ea4\u6613\u5e73\u53f0\u4e0e\u4e00\u5356\u5bb6\u53d6\u5f97\u8054\u7cfb\uff0c\u5e76\u63d0\u51fa\u8981\u770b\u5b9e\u7269\u7167\u7247\u3002\u5356\u5bb6\u968f\u5373\u4f20\u6765\u7167\u7247\uff0c\u53ef\u89c1\u51e0\u5f20\u5927\u5c0f\u4e0e\u4e00\u5361\u901a\u76f8\u4f3c\u7684\u7eaf\u767d\u8272\u5361\u7247\uff0c\u79f0\u6bcf\u5f20\u96f6\u552e\u4ef7900\u5143\uff0c\u53ef\u89c1\u9762\u9a8c\u8d27\u3002\u6b64\u5916\uff0c\u5bf9\u65b9\u751a\u81f3\u8fd8\u6253\u51fa\u201c\u62db\u4ee3\u7406\u201d\u5e7f\u544a\uff0c\u201c\u4ee3\u740610\u5f20\u7684\uff0c650\u5143\u4e00\u5f20\u3002\u201d
p371
aV11\u670824\u65e5\uff0c\u897f\u76f4\u95e8\u5730\u94c1\u7ad9\uff0c\u8bb0\u8005\u4e0e\u4e00\u201c\u5361\u8d29\u201d\u5982\u7ea6\u76f8\u89c1\u3002\u5bf9\u65b9\u624b\u91cc\u62ff\u7740\u4e00\u5f20\u5feb\u9012\u5e95\u5355\uff0c\u201c\u4f60\u770b\u6211\u8fd9\u521a\u7ed9\u4e00\u4e2a\u2018\u56de\u5934\u5ba2\u2019\u53c8\u53d1\u4e86\u4e24\u5f20\u5361\uff0c\u4fdd\u51c6\u597d\u7528\uff01\u201d\u4ed6\u628a\u8bb0\u8005\u5e26\u5230\u5730\u94c1\u51fa\u53e3\u7684\u89d2\u843d\uff0c\u4e00\u8fb9\u906e\u906e\u63a9\u63a9\u5730\u4ece\u5305\u91cc\u62ff\u51fa5\u5f20\u6ef4\u80f6\u5361\u548c3\u5f20\u78c1\u5361\uff0c\u4e00\u8fb9\u7d27\u5f20\u5730\u73af\u987e\u56db\u5468\uff0c\u201c\u6628\u5929\u521a\u5230\u8d27\uff0c\u5927\u5361\u548c\u5c0f\u5361\u90fd\u6709\uff0c\u4ef7\u683c\u4e00\u6837\uff0c\u5c0f\u5361\u6525\u5728\u624b\u91cc\u4e0d\u6613\u88ab\u53d1\u73b0\uff0c\u5c31\u662f\u611f\u5e94\u53ef\u80fd\u5dee\u70b9\u513f\u201d\u3002
p372
aV\u63d0\u51fa\u9a8c\u8d27\u8981\u6c42\u540e\uff0c\u5356\u5bb6\u9012\u7ed9\u8bb0\u8005\u4e00\u5f20\u5c0f\u578b\u6ef4\u80f6\u5361\uff0c\u81ea\u5df1\u5219\u62ff\u7740\u4e00\u5f20\u5927\u5361\uff0c\u5f84\u76f4\u8d70\u5411\u65e0\u4eba\u503c\u5b88\u7684\u5730\u94c1\u5165\u53e3\u95f8\u673a\u3002\u201c\u6ef4\uff01\u201d\u95f8\u673a\u54cd\u8d77\u8b66\u793a\u97f3\uff0c\u8bb0\u8005\u53d1\u73b0\uff0c\u4e0e\u666e\u901a\u7684\u4e00\u5361\u901a\u663e\u793a\u4f59\u989d\u4e0d\u540c\uff0c\u95f8\u673a\u4e0a\u663e\u793a\u7684\u662f\u201c\u5269\u4f59198\u6b21\u201d\u3002\u201c\u5237\u5361\u7684\u65f6\u5019\u653e\u5927\u80c6\uff0c\u81ea\u7136\u70b9\u3002\u8981\u6709\u4eba\u95ee\u4f60\uff0c\u4f60\u5c31\u8bf4\u81ea\u5df1\u662f\u5458\u5de5\u3002\u201d\u5356\u5bb6\u7279\u610f\u5631\u5490\u8bb0\u8005\u9053\u3002\u968f\u540e\u8bb0\u8005\u548c\u5356\u5bb6\u5237\u5361\u987a\u5229\u901a\u8fc7\u51fa\u53e3\u95f8\u673a\u3002
p373
aV\u9a8c\u8d27\u540e\u8bb0\u8005\u95ee\u5356\u5bb6\u662f\u5426\u4e3a\u5317\u4eac\u5730\u94c1\u3001\u4eac\u6e2f\u5730\u94c1\u6216\u5317\u4eac\u516c\u4ea4\u96c6\u56e2\u5185\u90e8\u5de5\u4f5c\u4eba\u5458\uff0c\u5bf9\u65b9\u76f4\u8a00\uff0c\u201c\u4e0d\u662f\u554a\u3002\u6211\u53ea\u662f\u62ff\u8fd9\u4e2a\u8d5a\u70b9\u5916\u5feb\u3002\u201d\u4e8b\u540e\u8bb0\u8005\u63d0\u51fa\u60f3\u505a\u4e0b\u7ea7\u4ee3\u7406\uff0c\u4ed6\u723d\u5feb\u4ea4\u4e86\u5e95\uff0c\u8fd9\u4e9b\u6240\u8c13\u201c\u5458\u5de5\u5361\u201d\u5e76\u975e\u771f\u6b63\u7684\u5458\u5de5\u5361\uff0c\u800c\u662f\u5c06\u540c\u6837\u4fe1\u606f\u62f7\u8d1d\u5230\u4e00\u5f20\u65e0\u4efb\u4f55\u4fe1\u606f\u7684\u201c\u767d\u5361\u201d\u4e0a\uff0c\u9020\u51fa\u6765\u7684\u201c\u590d\u5236\u54c1\u201d\uff0c\u4e0d\u8fc7\u4f7f\u7528\u8d77\u6765\u4e0e\u6b63\u89c4\u201c\u5458\u5de5\u5361\u201d\u5e76\u65e0\u5dee\u522b\u3002\u4ed6\u4e5f\u662f\u81ea\u5df1\u4e70\u4e86\u4e00\u5f20\u201c\u5458\u5de5\u5361\u201d\u540e\u78b0\u5de7\u8054\u7cfb\u4e0a\u4e86\u5236\u4f5c\u5361\u7247\u7684\u201c\u5927boss\u201d\uff0c\u4e8e\u662f\u5f00\u59cb\u5f53\u8d77\u5356\u5bb6\uff0c\u4ed6\u548c\u201c\u5927boss\u201d\u53ea\u662f\u7ebf\u4e0a\u4ea4\u6613\u3001\u5feb\u9012\u53d1\u8d27\uff0c\u4ece\u672a\u8c0b\u9762\u3002\u201c\u73b0\u5728\u6211\u8fd8\u6709\u4e86\u2018\u56de\u5934\u5ba2\u2019\uff0c\u4e00\u5929\u80fd\u5356\u51fa\u4e94\u516d\u5f20\uff0c\u6211\u90a3\u70b9\u513f\u94b1\u90fd\u5468\u8f6c\u4e0d\u8fc7\u6765\u4e86\u3002\u201d
p374
aV\u4ed6\u79f0\u81ea\u5df1\u5728\u8fdb\u8d27\u4e2d\u4e5f\u66fe\u88ab\u9a97\u8fc7\uff0c\u6240\u552e\u5361\u4e5f\u7ecf\u5e38\u4e0d\u7a33\u5b9a\uff0c\u201c\u6240\u4ee5\u6211\u90fd\u4e0d\u613f\u610f\u5356\u7ed9\u8eab\u8fb9\u7684\u4eba\u201d\u3002\u201c\u8fd9\u5361\u5236\u4f5c\u6210\u672c\u4f4e\uff0c\u4f46\u98ce\u9669\u9ad8\uff0c\u6bd5\u7adf\u8fdd\u6cd5\u554a\u3002\u201d\u5c0f\u4f19\u5b50\u663e\u7136\u77e5\u9053\u6b64\u4e3e\u5e76\u975e\u6b63\u9014\uff0c\u6240\u4ee5\u76f8\u6bd4\u8d77\u4e8c\u624b\u5e73\u53f0\u6765\uff0c\u4ed6\u66f4\u613f\u610f\u5728\u5fae\u4fe1\u6216\u7ebf\u4e0b\u652f\u4ed8\uff0c\u201c\u4e0d\u4f1a\u7559\u4e0b\u4ea4\u6613\u8bb0\u5f55\u201d\u3002
p375
aV\u90a3\u8fd9\u79cd\u201c\u590d\u5236\u201d\u7684\u201c\u5458\u5de5\u5361\u201d\u662f\u5426\u9760\u8c31\u5462\uff1f\u8bb0\u8005\u4e5f\u91c7\u8bbf\u4e86\u8be5\u7c7b\u201c\u5458\u5de5\u5361\u201d\u7684\u66fe\u7ecf\u4f7f\u7528\u8005\u5c0f\u5f20\u3002\u5979\u8bf4\u81ea\u5df1\u5728\u6536\u5230\u5361\u540e\u4f7f\u7528\u4e0d\u8db3\u4e24\u4e2a\u6708\u4fbf\u88ab\u5c01\u5361\u4e86\uff0c\u201c\u8fdb\u5730\u94c1\u7ad9\u5237\u7684\u65f6\u5019\uff0c\u95f8\u673a\u5c31\u4e00\u76f4\u6ef4\u6ef4\u6ef4\u6ef4\u5730\u54cd\uff0c\u5413\u6b7b\u6211\u4e86\u201d\u3002
p376
aV\u5bf9\u6b64\u4e8b\uff0c\u5317\u4eac\u516c\u4ea4\u96c6\u56e2\u5916\u5ba3\u5de5\u4f5c\u4eba\u5458\u4ecb\u7ecd\uff0c\u516c\u4ea4\u96c6\u56e2\u5185\u90e8\u5de5\u4f5c\u4eba\u5458\u786e\u4f1a\u6709\u5458\u5de5\u5361(\u53f3\u56fe)\uff0c\u5458\u5de5\u6301\u5361\u6bcf\u6708\u53ef\u4e58\u5750200\u6b21\u5730\u94c1\u53ca\u591a\u6b21\u516c\u4ea4\u8f66\uff0c\u4f46\u4e0e\u5f62\u6001\u5404\u5f02\u7684\u201c\u514b\u9686\u5361\u201d\u4e0d\u540c\uff0c\u6b63\u89c4\u5458\u5de5\u5361\u4e0a\u6709\u5458\u5de5\u7167\u7247\u3001\u59d3\u540d\u3001\u6027\u522b\u3001\u6240\u5728\u5355\u4f4d\u3001\u53d1\u5361\u65e5\u671f\u7b49\u5177\u4f53\u4fe1\u606f\u3002\u800c\u4e14\u5458\u5de5\u4f7f\u7528\u5458\u5de5\u5361\u4e5f\u6709\u76f8\u5173\u89c4\u5b9a\uff0c\u8981\u6c42\u4e00\u4eba\u4e00\u5361\u3001\u7981\u6b62\u5916\u501f\uff0c\u79bb\u804c\u4eba\u5458\u7684\u5458\u5de5\u5361\u4f1a\u53ca\u65f6\u56de\u6536\u5e76\u6ce8\u9500\u3002\u201c\u6211\u4eec\u6b63\u5e38\u7684\u5de5\u4f5c\u7b7e\u5230\u3001\u9910\u996e\u53ca\u5f88\u591a\u540e\u52e4\u4fdd\u969c\u90fd\u9700\u8981\u7528\u5230\u8fd9\u4e2a\u5458\u5de5\u5361\uff0c\u6240\u4ee5\u96c6\u56e2\u5458\u5de5\u4e0d\u53ef\u80fd\u628a\u5b83\u51fa\u552e\u3002\u5982\u679c\u5458\u5de5\u628a\u5361\u5916\u501f\uff0c\u6211\u4eec\u4f1a\u6839\u636e\u76f8\u5173\u89c4\u5b9a\u5bf9\u5458\u5de5\u505a\u51fa\u5904\u7406\u3002\u201d
p377
aV\u4ed6\u8fd8\u8868\u793a\uff0c\u65e0\u8bba\u5236\u5361\u3001\u53d1\u552e\u8fd8\u662f\u4f7f\u7528\u8be5\u7c7b\u201c\u514b\u9686\u5361\u201d\u3001\u201c\u590d\u5236\u5361\u201d\uff0c\u90fd\u662f\u4e00\u79cd\u53d8\u76f8\u7684\u9003\u7968\u884c\u4e3a\uff0c\u66f4\u8fdd\u53cd\u4e86\u76f8\u5173\u7684\u6cd5\u5f8b\u6cd5\u89c4\u3002\u9488\u5bf9\u4f2a\u9020\u3001\u53d8\u9020\u6216\u5192\u7528\u4ed6\u4eba\u4e58\u8f66\u8bc1\u4ef6\u7684\u884c\u4e3a\uff0c\u96c6\u56e2\u5185\u90e8\u8981\u6c42\u5de5\u4f5c\u4eba\u5458\u53d1\u73b0\u540e\u53ca\u65f6\u5236\u6b62\u3001\u53ca\u65f6\u4e3e\u62a5\u3002\u201c\u8fd9\u79cd\u590d\u5236\u5361\u662f\u4e00\u79cd\u533f\u540d\u7684\u72b6\u6001\uff0c\u5bf9\u6211\u4eec\u8f66\u4e0a\u7684\u7ba1\u7406\u3001\u51fa\u884c\u7684\u6570\u636e\u90fd\u4f1a\u9020\u6210\u5e72\u6270\uff0c\u540c\u65f6\u4e5f\u4fb5\u5360\u4e86\u6211\u4eec\u516c\u5171\u8d44\u4ea7\u3002\u201d\u5982\u679c\u5728\u5236\u6b62\u65e0\u6548\uff0c\u6301\u5361\u4eba\u6270\u4e71\u8fd0\u8425\u79e9\u5e8f\u3001\u5bf9\u8f66\u53a2\u5185\u90e8\u9020\u6210\u4e0d\u826f\u5f71\u54cd\u65f6\uff0c\u96c6\u56e2\u4e5f\u8981\u6c42\u5de5\u4f5c\u4eba\u5458\u53ca\u65f6\u62a5\u8b66\u5904\u7406\u3002
p378
aV\u5de5\u4f5c\u4eba\u5458\u544a\u8bc9\u8bb0\u8005\uff0c\u516c\u4ea4\u96c6\u56e2\u4e00\u76f4\u5728\u67e5\u5904\u6b64\u7c7b\u884c\u4e3a\uff0c\u6b64\u524d\u4e5f\u66fe\u53d1\u73b0\u8fc7\u5916\u89c2\u76f8\u50cf\u5b9e\u4e3a\u5192\u5145\u7684\u5f02\u5f62\u5361\u3002\u201c\u4f46\u56e0\u4e3a\u6211\u4eec\u5e76\u4e0d\u5177\u5907\u4e00\u5361\u901a\u53d1\u884c\u3001\u53d1\u552e\u7684\u8d44\u8d28\u548c\u6280\u672f\uff0c\u4e5f\u4e0d\u5177\u5907\u6267\u6cd5\u8d44\u683c\uff0c\u56e0\u6b64\u53ea\u80fd\u5728\u516c\u4ea4\u8f66\u4e0a\u3001\u4ece\u6700\u672b\u7aef\u8fdb\u884c\u76d1\u7763\u3002\u201d
p379
aV\u636e\u5317\u4eac\u5e02\u653f\u4e00\u5361\u901a\u516c\u53f8\u5de5\u4f5c\u4eba\u5458\u4ecb\u7ecd\uff0c\u4e00\u822c\u5458\u5de5\u5361\u90fd\u5c5e\u9762\u5bf9\u5730\u94c1\u516c\u53f8\u53ca\u516c\u4ea4\u96c6\u56e2\u201c\u516c\u5bf9\u516c\u201d\u4e1a\u52a1\uff0c\u5458\u5de5\u5361\u96c6\u4f53\u5236\u4f5c\uff0c\u4e00\u4eba\u4e00\u5361\uff0c\u4e2a\u4eba\u65e0\u6cd5\u8d2d\u4e70\u4e5f\u65e0\u6cd5\u552e\u5356\u3002\u5bf9\u4e8e\u8bb0\u8005\u63d0\u51fa\u662f\u5426\u56e0\u5bc6\u4fdd\u7cfb\u7edf\u95ee\u9898\u5bfc\u81f4\u4fe1\u606f\u6cc4\u9732\uff0c\u5bf9\u65b9\u8868\u793a\u201c\u4e0d\u662f\u5f88\u6e05\u695a\u201d\u3002\u540c\u65f6\uff0c\u5e02\u653f\u4e00\u5361\u901a\u5de5\u4f5c\u4eba\u5458\u63d0\u793a\uff0c\u6d88\u8d39\u8005\u5e94\u901a\u8fc7\u6b63\u89c4\u6e20\u9053\u8d2d\u4e70\u5e02\u653f\u4ea4\u901a\u4e00\u5361\u901a\uff0c\u4ee5\u514d\u4e0a\u5f53\u53d7\u9a97\u3002
p380
aV\u82b1\u4e00\u6b21\u5927\u94b1\u7701\u4e00\u767e\u6b21\u5c0f\u94b1\uff0c\u516c\u4ea4\u5730\u94c1\u968f\u4fbf\u4e58\u5750\u3001\u7545\u901a\u65e0\u963b\u2026\u2026\u8fd9\u542c\u8d77\u6765\u5f88\u7f8e\u5999\uff0c\u4e5f\u6070\u4e2d\u4e86\u90a3\u4e9b\u7231\u8d2a\u5c0f\u4fbf\u5b9c\u7684\u4eba\u7684\u5fc3\u601d\u3002\u663e\u800c\u6613\u89c1\uff0c\u5236\u5361\u8005\u548c\u5356\u5bb6\u4e5f\u662f\u5728\u6709\u610f\u8fce\u5408\u8fd9\u4e9b\u201c\u6d88\u8d39\u8005\u201d\uff0c\u4ec0\u4e48\u6d88\u78c1\u80fd\u9000\uff0c\u4ec0\u4e48\u80fd\u5237\u52302020\u5e74\u8fd9\u6837\u7684\u627f\u8bfa\uff0c\u80fd\u4fe1\u7684\u6709\u51e0\u5206\uff1f
p381
aV\u6211\u5728\u8c03\u67e5\u4e2d\u77e5\u9053\uff0c\u56e0\u4f7f\u7528\u4e0d\u7a33\u5b9a\uff0c\u5356\u5bb6\u4e0d\u4f1a\u628a\u201c\u5458\u5de5\u5361\u201d\u5356\u7ed9\u8eab\u8fb9\u4eba\uff1b\u6211\u8fd8\u77e5\u9053\uff0c\u4f20\u8bf4\u4e2d\u201c\u53ef\u7528\u52302020\u5e74\u201d\u7684\u5361\uff0c\u53ef\u80fd\u5728\u4e00\u4e24\u4e2a\u6708\u540e\u5c31\u65e0\u6cd5\u6b63\u5e38\u4f7f\u7528\u3002\u4f60\u53ef\u80fd\u88ab\u5356\u5bb6\u968f\u624b\u62c9\u8fdb\u9ed1\u540d\u5355\uff0c\u5bf9\u65b9\u4e5f\u53ef\u4ee5\u6d88\u5931\u4e0d\u89c1\uff0c\u54ea\u6015\u4f60\u82b1\u4e86\u4e00\u5927\u628a\u94b1\uff0c\u8d2d\u4e70\u8fd9\u7c7b\u975e\u6cd5\u5361\u7968\u4e5f\u65e0\u5904\u7ef4\u6743\u3002
p382
aV\u53ea\u60f3\u547c\u5401\uff0c\u5207\u83ab\u4e3a\u4e86\u8d2a\u90a3\u773c\u524d\u7684\u4e00\u5c0f\u70b9\u6240\u8c13\u7684\u4fbf\u5b9c\u800c\u5403\u4e2a\u5927\u4e8f\uff0c\u800c\u4e14\u662f\u5728\u7528\u81ea\u5df1\u7684\u8f9b\u82e6\u94b1\u5e2e\u72af\u7f6a\u5206\u5b50\u201c\u53d1\u5bb6\u81f4\u5bcc\u201d\uff01
p383
asg19
V\u7f51\u552e\u516c\u4ea4\u5185\u90e8\u201c\u5458\u5de5\u5361\u201d\u6709\u4eba\u4f7f\u7528\u4e0d\u8db3\u4e24\u6708\u88ab\u5c01\u53f7
p384
sa(dp385
g2
S'http://it.gmw.cn/2017-12/27/content_27200559.htm'
p386
sg4
V2017-12-27 14:33
p387
sg6
(lp388
V\u5c71\u4e1c\u7701\u653f\u5e9c\u4e0e\u963f\u91cc\u5df4\u5df4\u96c6\u56e2\u8fbe\u6210\u5168\u9762\u6218\u7565\u5408\u4f5c\uff0c\u5c06\u5e94\u7528\u4eba\u5de5\u667a\u80fd\u3001\u4e91\u8ba1\u7b97\u7b49\u524d\u6cbf\u6280\u672f\uff0c\u5168\u529b\u63a8\u8fdb\u5c71\u4e1c\u5236\u9020\u4ea7\u4e1a\u8f6c\u578b\u5347\u7ea7\uff0c\u5728\u667a\u80fd\u5236\u9020\u9886\u57df\u6253\u9020\u4e00\u6279\u6807\u6746\u9879\u76ee\u3002\u963f\u91cc\u5df4\u5df4\u8463\u4e8b\u5c40\u4e3b\u5e2d\u9a6c\u4e91\u8868\u793a\uff0c\u53c2\u4e0e\u5c71\u4e1c\u65b0\u65e7\u52a8\u80fd\u8f6c\u6362\u662f\u963f\u91cc\u5df4\u5df4\u7684\u8363\u5e78\uff0c\u5c71\u4e1c\u4f5c\u4e3a\u5236\u9020\u4e1a\u5927\u7701\uff0c\u8ba9\u90e8\u5206\u4f01\u4e1a\u5148\u4e0a\u4e91\uff0c\u901a\u8fc7\u4e91\u8ba1\u7b97\u3001\u4eba\u5de5\u667a\u80fd\u6280\u672f\uff0c\u8ba9\u5c71\u4e1c\u4f01\u4e1a\u63d2\u4e0a\u4e91\u7684\u7fc5\u8180\uff0c\u8ba9\u8fd9\u4e9b\u4f01\u4e1a\u80fd\u591f\u817e\u98de\u8d77\u6765\u3002
p389
aV\u963f\u91cc\u4e91ET\u5de5\u4e1a\u5927\u8111\u5c06\u6df1\u5165\u5c71\u4e1c\u5de5\u4e1a\u4f01\u4e1a\u7684\u751f\u4ea7\u8f66\u95f4\uff0c\u901a\u8fc7\u7269\u8054\u7f51\u3001\u4e91\u8ba1\u7b97\u3001\u4eba\u5de5\u667a\u80fd\u7b49\u6280\u672f\u7684\u5e94\u7528\uff0c\u963f\u91cc\u4e91\u673a\u5668\u667a\u80fd\u79d1\u5b66\u5bb6\u4eec\u5c06\u4e0e\u4e00\u7ebf\u751f\u4ea7\u5de5\u4eba\u643a\u624b\u63a2\u7d22\u65b0\u6280\u672f\u5728\u5236\u9020\u9886\u57df\u7684\u4ea7\u4e1a\u5b9e\u8df5\u3002\u6b64\u524d\uff0c\u963f\u91cc\u4e91ET\u5de5\u4e1a\u5927\u8111\u5df2\u7ecf\u6df1\u5165\u5de5\u4e1a\u751f\u4ea7\u8f66\u95f4\uff0c\u5e2e\u52a9\u591a\u5bb6\u5236\u9020\u7c7b\u4f01\u4e1a\u5b9e\u73b0\u5229\u6da6\u7a81\u7834\u3002
p390
aV\u5c71\u4e1c\u7701\u9f99\u5934\u4f01\u4e1a\u6f4d\u67f4\u52a8\u529b\u3001\u5c71\u94a2\u96c6\u56e2\u548c\u5156\u77ff\u96c6\u56e2\u540c\u65f6\u4e0e\u963f\u91cc\u4e91\u7b7e\u7f72\u4e86\u5408\u4f5c\u534f\u8bae\uff0c\u5c06\u5e94\u7528\u963f\u91cc\u4e91\u7684\u4eba\u5de5\u667a\u80fd\u3001\u4e91\u8ba1\u7b97\u6280\u672f\uff0c\u5728\u751f\u4ea7\u5de5\u827a\u4f18\u5316\u3001\u80fd\u8017\u964d\u4f4e\u3001\u6280\u672f\u521b\u65b0\u7b49\u65b9\u9762\uff0c\u5171\u540c\u63a2\u7d22\u667a\u80fd\u5316\u8f6c\u578b\u65b0\u6a21\u5f0f\u3002
p391
aV\u540c\u65f6\uff0c\u5c71\u4e1c\u7701\u653f\u5e9c\u4e0e\u8682\u8681\u91d1\u670d\u8fbe\u6210\u5408\u4f5c\uff0c\u5c06\u5229\u7528\u5728\u79fb\u52a8\u7aef\u653f\u52a1\u4fbf\u6c11\u9886\u57df\u7684\u4e30\u5bcc\u5b9e\u8df5\u548c\u5b9e\u4eba\u8ba4\u8bc1\u7b49\u6838\u5fc3\u6280\u672f\uff0c\u5171\u5efa\u5c71\u4e1c\u7701\u653f\u52a1\u670d\u52a1\u201c\u4e00\u5f20\u7f51\u201d\uff0c\u534f\u52a9\u642d\u5efa\u975e\u7a0e\u7f34\u6b3e\u7f51\u4e0a\u652f\u4ed8\u5e73\u53f0\u3002\u4eca\u540e\u5c71\u4e1c\u4eba\u5230\u653f\u5e9c\u529e\u4e8b\u7f34\u8d39\uff0c\u5728\u4e00\u4e2a\u5e73\u53f0\u5c31\u80fd\u8f7b\u677e\u641e\u5b9a\uff0c\u5b9e\u73b0\u8ba9\u6570\u636e\u591a\u8dd1\u8def\u3001\u7fa4\u4f17\u5c11\u8dd1\u817f\u3002
p392
aV\u6b64\u5916\uff0c\u4e24\u5bb6\u516c\u53f8\u8fd8\u5c06\u4e3a\u6d4e\u5357\u3001\u9752\u5c9b\u7b49\u57ce\u5e02\u516c\u5171\u4ea4\u901a\u4f53\u7cfb\u63d0\u4f9b\u79fb\u52a8\u652f\u4ed8\u89e3\u51b3\u65b9\u6848\uff0c\u65b9\u4fbf\u793e\u4f1a\u7fa4\u4f17\u7eff\u8272\u51fa\u884c\u3002\u6309\u7167\u534f\u8bae\uff0c\u6b63\u5728\u5efa\u8bbe\u7684\u6d4e\u5357\u5730\u94c1\u548c\u8425\u8fd0\u4e2d\u7684\u9752\u5c9b\u5730\u94c1\uff0c\u5c06\u5b9e\u73b0\u652f\u4ed8\u5b9d\u8d2d\u7968\u4e58\u8f66\uff0c\u7701\u5185\u516c\u4ea4\u8f66\u4e5f\u5c06\u9646\u7eed\u5f00\u901a\u5237\u652f\u4ed8\u5b9d\u4e58\u8f66\u3002
p393
asg19
V\u65b0\u5236\u9020\u63a8\u52a8\u4ea7\u4e1a\u5347\u7ea7\u963f\u91cc\u5df4\u5df4\u4e0e\u5c71\u4e1c\u7701\u8fbe\u6210\u5168\u9762\u6218\u7565\u5408\u4f5c
p394
sa(dp395
g2
S'http://economy.gmw.cn/2016-05/06/content_19978651.htm'
p396
sg4
V2016-05-06 10:07
p397
sg6
(lp398
V\u4eac\u534e\u65f6\u62a5\u8baf\uff08\u8bb0\u8005\u9ec4\u6d77\u857e\uff09\u6628\u5929\u4e0a\u5348\uff0c\u5317\u4eac\u5e02\u59d4\u5e02\u653f\u5e9c\u5370\u53d1\u300a\u5173\u4e8e\u63a8\u8fdb\u4ef7\u683c\u673a\u5236\u6539\u9769\u7684\u5b9e\u65bd\u610f\u89c1\u300b\uff08\u4ee5\u4e0b\u7b80\u79f0\u300a\u5b9e\u65bd\u610f\u89c1\u300b\uff09\uff0c\u63d0\u51fa\u5b9a\u671f\u5bf9\u5b9e\u884c\u653f\u5e9c\u5b9a\u4ef7\u7ba1\u7406\u7684\u57ce\u5e02\u516c\u5171\u7535\u6c7d\u8f66\u548c\u8f68\u9053\u4ea4\u901a\u4ef7\u683c\u8fdb\u884c\u8c03\u6574\uff0c\u7814\u7a76\u4ea4\u901a\u62e5\u5835\u6536\u8d39\u653f\u7b56\uff0c\u63a8\u8fdb\u5317\u4eac\u51fa\u79df\u6c7d\u8f66\u8fd0\u4ef7\u5f62\u6210\u673a\u5236\u6539\u9769\u3002
p399
aV\u300a\u5b9e\u65bd\u610f\u89c1\u300b\u63d0\u5230\uff0c\u5317\u4eac\u5c06\u5065\u5168\u7f13\u89e3\u4ea4\u901a\u62e5\u5835\u4ef7\u683c\u673a\u5236\u3002\u56f4\u7ed5\u7f13\u89e3\u4ea4\u901a\u62e5\u5835\uff0c\u5c06\u52a0\u5feb\u63a8\u8fdb\u5360\u9053\u505c\u8f66\u7ba1\u7406\u4f53\u5236\u6539\u9769\u548c\u7535\u5b50\u6536\u8d39\u7cfb\u7edf\u5efa\u8bbe\uff0c\u8c03\u6574\u5360\u9053\u505c\u8f66\u6536\u8d39\u6807\u51c6\uff0c\u5b8c\u5584\u505c\u8f66\u6536\u8d39\u653f\u7b56\u3002\u4eac\u534e\u65f6\u62a5\u8bb0\u8005\u4e86\u89e3\u5230\uff0c\u6b64\u6b21\u5360\u9053\u505c\u8f66\u6536\u8d39\u8c03\u6574\u5c06\u66f4\u53cd\u6620\u5e02\u573a\u548c\u5730\u4ef7\u7684\u4ef7\u683c\uff0c\u90e8\u5206\u505c\u8f66\u4f4d\u7d27\u4fcf\u8def\u6bb5\u6536\u8d39\u6807\u51c6\u6216\u5927\u5e45\u63d0\u5347\u3002
p400
aV\u53e6\u5916\uff0c\u8981\u843d\u5b9e\u516c\u5171\u4ea4\u901a\u4ef7\u683c\u52a8\u6001\u8c03\u6574\u529e\u6cd5\uff0c\u5b9a\u671f\u5bf9\u5b9e\u884c\u653f\u5e9c\u5b9a\u4ef7\u7ba1\u7406\u7684\u57ce\u5e02\u516c\u5171\u7535\u6c7d\u8f66\u548c\u8f68\u9053\u4ea4\u901a\u4ef7\u683c\u8fdb\u884c\u8c03\u6574\u3002\u4ea4\u901a\u4e13\u5bb6\u5f90\u5eb7\u660e\u544a\u8bc9\u4eac\u534e\u65f6\u62a5\u8bb0\u8005\uff0c\u516c\u5171\u4ea4\u901a\u7968\u4ef7\u8c03\u6574\u4e00\u822c\u8bbe\u6709\u901a\u7528\u516c\u5f0f\uff0c\u4e3b\u8981\u8003\u8651\u516c\u5171\u4ea4\u901a\u4f01\u4e1a\u52b3\u52a8\u529b\u3001\u8bbe\u5907\u6295\u5165\u7b49\u8fd0\u8425\u6210\u672c\u4ee5\u53caCPI\u53d8\u52a8\u7b49\u56e0\u7d20\u3002\u6b64\u524d\u5317\u4eac\u8c03\u6574\u516c\u5171\u4ea4\u901a\u7968\u4ef7\u4e5f\u662f\u6839\u636e\u516c\u5f0f\u6d4b\u7b97\uff0c\u4e00\u822c\u5e74\u5ea6\u8c03\u6574\u5e45\u5ea6\u4e0d\u9ad8\u4e8e\u5168\u5e02\u4eba\u5747\u53ef\u652f\u914d\u6536\u5165\u589e\u957f\u5e45\u5ea6\u3002
p401
aV\u5317\u4eac\u5e02\u53d1\u6539\u59d4\u76f8\u5173\u8d1f\u8d23\u4eba\u8868\u793a\uff0c\u76ee\u524d\uff0c\u5317\u4eac\u5e02\u8f68\u9053\u4ea4\u901a\u4ecd\u5904\u4e8e\u5feb\u901f\u53d1\u5c55\u9636\u6bb5\uff0c\u8def\u7f51\u89c4\u6a21\u3001\u5ba2\u6d41\u60c5\u51b5\u53ca\u8fd0\u8425\u6210\u672c\u53d8\u5316\u8f83\u5927\u3002\u516c\u5171\u4ea4\u901a\u7968\u4ef7\u8981\u6bcf\u5e74\u6839\u636e\u516c\u5f0f\u8fdb\u884c\u8bc4\u4f30\u548c\u6d4b\u7b97\uff0c\u540c\u65f6\uff0c\u6bcf5\u5e74\u5de6\u53f3\u6839\u636e\u516c\u5171\u4ea4\u901a\u5b9a\u671f\u6210\u672c\u76d1\u5ba1\u6570\u636e\u3001\u516c\u5171\u4ea4\u901a\u53d1\u5c55\u60c5\u51b5\u3001\u793e\u4f1a\u53ef\u627f\u53d7\u80fd\u529b\u7b49\u56e0\u7d20\uff0c\u5bf9\u516c\u5171\u4ea4\u901a\u4ef7\u683c\u53ca\u516c\u5f0f\u8fdb\u884c\u6574\u4f53\u8bc4\u4f30\u548c\u8c03\u6574\u3002
p402
aV\u300a\u5b9e\u65bd\u610f\u89c1\u300b\u8fd8\u63d0\u5230\uff0c\u8981\u843d\u5b9e\u300a\u5317\u4eac\u5e022013\u20142017\u5e74\u6e05\u6d01\u7a7a\u6c14\u884c\u52a8\u8ba1\u5212\u300b\uff0c\u7814\u7a76\u4ea4\u901a\u62e5\u5835\u6536\u8d39\u653f\u7b56\u3002\u6309\u7167\u51fa\u79df\u6c7d\u8f66\u884c\u4e1a\u7ba1\u7406\u4f53\u5236\u6539\u9769\u603b\u4f53\u5b89\u6392\uff0c\u63a8\u8fdb\u5317\u4eac\u51fa\u79df\u6c7d\u8f66\u8fd0\u4ef7\u5f62\u6210\u673a\u5236\u6539\u9769\u3002
p403
aV\u4f01\u4e8b\u4e1a\u5355\u4f4d\u6c34\u7535\u6c14\u70ed\u5dee\u522b\u5b9a\u4ef7
p404
aV\u300a\u5b9e\u65bd\u610f\u89c1\u300b\u63d0\u51fa\uff0c\u5c06\u53d1\u6325\u4ef7\u683c\u6760\u6746\u4f5c\u7528\uff0c\u4fc3\u8fdb\u5317\u4eac\u975e\u9996\u90fd\u529f\u80fd\u758f\u89e3\u3002\u52a0\u5feb\u5b9e\u65bd\u4f01\u4e8b\u4e1a\u5355\u4f4d\u7528\u6c34\u3001\u7528\u7535\u3001\u7528\u6c14\u3001\u7528\u70ed\u7b49\u65b9\u9762\u5206\u533a\u57df\u4ef7\u683c\u653f\u7b56\uff0c\u5927\u5e45\u5ea6\u63d0\u9ad8\u4f01\u4e8b\u4e1a\u5355\u4f4d\u5728\u57ce\u516d\u533a\u7684\u6269\u5f20\u95e8\u69db\uff1b\u79ef\u6781\u534f\u8c03\u63a8\u8fdb\u5dee\u522b\u7535\u4ef7\u3001\u6c34\u4ef7\u653f\u7b56\u843d\u5b9e\uff0c\u7814\u7a76\u5dee\u522b\u6c14\u4ef7\u653f\u7b56\uff0c\u4fc3\u8fdb\u8282\u80fd\u51cf\u6392\u548c\u4ea7\u4e1a\u4f18\u5316\u5347\u7ea7\uff0c\u5f15\u5bfc\u4ea7\u4e1a\u5408\u7406\u5e03\u5c40\u3002
p405
aV\u5317\u4eac\u5c06\u5206\u7c7b\u63a8\u8fdb\u5176\u4ed6\u516c\u5171\u670d\u52a1\u4ef7\u683c\u6539\u9769\u3002\u9010\u6b65\u653e\u5f00\u6c11\u529e\u5b66\u6821\u7684\u5b66\u5386\u6559\u80b2\u6536\u8d39\u6807\u51c6\uff0c\u63a8\u8fdb\u6c11\u529e\u6559\u80b2\u5e02\u573a\u5316\uff0c\u5236\u5b9a\u4e2d\u5c0f\u5b66\u6559\u6750\u6536\u8d39\u653f\u7b56\u3002\u540c\u65f6\uff0c\u5206\u7c7b\u63a8\u8fdb\u666f\u533a\u95e8\u7968\u53ca\u76f8\u5173\u670d\u52a1\u4ef7\u683c\u6539\u9769\u3002\u68b3\u7406\u6709\u7ebf\u7535\u89c6\u6536\u8d39\u653f\u7b56\uff0c\u7814\u7a76\u9ad8\u6e05\u4ea4\u4e92\u6570\u5b57\u7535\u89c6\u6536\u770b\u7ef4\u62a4\u8d39\u6807\u51c6\u3002
p406
aV\u6b64\u5916\uff0c\u7406\u987a\u533b\u7597\u670d\u52a1\u4ef7\u683c\u3002\u52302020\u5e74\uff0c\u57fa\u672c\u7406\u987a\u533b\u7597\u670d\u52a1\u6bd4\u4ef7\u5173\u7cfb\uff0c\u5efa\u7acb\u4ee5\u6210\u672c\u548c\u6536\u5165\u7ed3\u6784\u53d8\u5316\u4e3a\u57fa\u7840\u7684\u4ef7\u683c\u52a8\u6001\u8c03\u6574\u673a\u5236\u3002
p407
aV\u6df1\u5165\u63a8\u8fdb\u5e02\u573a\u4ef7\u683c\u76d1\u7763\u68c0\u67e5\u548c\u53cd\u5784\u65ad\u6267\u6cd5\u3002\u52a0\u5927\u5bf9\u505c\u8f66\u6536\u8d39\u3001\u673a\u52a8\u8f66\u68c0\u6d4b\u3001\u623f\u5c4b\u4e2d\u4ecb\u670d\u52a1\u7b49\u4ef7\u683c\u653e\u5f00\u9886\u57df\uff0c\u4ee5\u53ca\u6559\u80b2\u3001\u533b\u7597\u3001\u901a\u8baf\u3001\u65c5\u6e38\u3001\u7269\u4e1a\u7ba1\u7406\u7b49\u793e\u4f1a\u5173\u6ce8\u9886\u57df\u6536\u8d39\u95ee\u9898\u7684\u5de1\u67e5\u3001\u68c0\u67e5\u529b\u5ea6\uff0c\u4f9d\u6cd5\u67e5\u5904\u5404\u7c7b\u4ef7\u683c\u8fdd\u6cd5\u884c\u4e3a\u3002
p408
aV\u52a0\u5feb\u63a8\u8fdb\u4ef7\u683c\u8bda\u4fe1\u5efa\u8bbe\uff0c\u5efa\u7acb\u7ecf\u8425\u8005\u4ef7\u683c\u4fe1\u7528\u6863\u6848\uff0c\u5f3a\u5316\u4fe1\u7528\u7ea6\u675f\u3002\u9f13\u52b1\u548c\u652f\u6301\u65b0\u95fb\u5a92\u4f53\u53c2\u4e0e\u4ef7\u683c\u793e\u4f1a\u76d1\u7763\u3002\u5efa\u8bbe\u672c\u5e02\u7edf\u4e00\u3001\u6743\u5a01\u7684\u4ef7\u683c\u4fe1\u606f\u53d1\u5e03\u5e73\u53f0\u3002
p409
asg19
V\u5317\u4eac\u5c06\u5b9a\u671f\u8c03\u6574\u516c\u4ea4\u5730\u94c1\u7968\u4ef7\u6bcf5\u5e74\u6574\u4f53\u8c03\u6574
p410
sa(dp411
g2
S'http://travel.gmw.cn/2015-12/29/content_18280885.htm'
p412
sg4
V2015-12-29 09:16
p413
sg6
(lp414
V\u6628\u65e5\u8d77\u81f32016\u5e74\u5e95\uff0c\u4e58\u5ba2\u5728\u5de5\u4f5c\u65e57\u65f6\u524d\u4ece\u516b\u901a\u7ebf\u53ca\u660c\u5e73\u7ebf\u768416\u5ea7\u5730\u94c1\u7ad9\u5237\u5361\u8fdb\u7ad9\uff0c\u53ef\u4eab\u53d77\u6298\u4f18\u60e0\u3002\u6253\u6298\u9996\u65e5\uff0c33595\u540d\u4e58\u5ba2\u8d76\u65e9\u8fdb\u7ad9\uff0c\u5237\u5361\u4eab\u53d7\u4f18\u60e0\u3002
p415
aV6\u65f640\u5206\uff0c\u5929\u521a\u8499\u8499\u4eae\uff0c\u5730\u94c1\u660c\u5e73\u7ebf\u5357\u90b5\u7ad9\uff0c\u5ba2\u6d41\u9010\u6e10\u805a\u96c6\uff0c20\u591a\u4f4d\u5de5\u4f5c\u4eba\u5458\u5404\u53f8\u5176\u804c\u3002\u4e00\u4f4d\u5728\u7ad9\u53e3\u758f\u5bfc\u5ba2\u6d41\u7684\u7ad9\u52a1\u5458\u8bf4\uff1a\u201c\u4ece\u4e0a\u5468\u4e94\u5c31\u5f00\u59cb\u8ddf\u4e58\u5ba2\u5ba3\u4f20\u4f4e\u5cf0\u7968\u4f18\u60e0\uff0c\u5c31\u6015\u65e9\u9ad8\u5cf0\u63d0\u524d\uff0c\u6240\u4ee5\u4eca\u5929\u63d0\u524d20\u5206\u949f\u5168\u5458\u5230\u5c97\u3002\u201d
p416
aV\u63a5\u8fd16\u65f650\u5206\uff0c\u6731\u8f9b\u5e84\u7ad9\u5f00\u59cb\u7ad9\u5916\u9650\u6d41\u3002\u5357\u90b5\u7ad9\u533a\u533a\u957f\u8d3e\u6c38\u521a\u8bf4\uff1a\u201c\u6309\u7167\u4ee5\u5f80\u60ef\u4f8b\uff0c\u7531\u4e8e\u5217\u8f66\u6ee1\u8f7d\u7387\u8d8a\u6765\u8d8a\u5927\uff0c\u6240\u4ee5\u8d8a\u9760\u8fd1\u897f\u4e8c\u65d7\u7ad9\u7684\u8f66\u7ad9\uff0c\u7ad9\u5916\u9650\u6d41\u5f00\u59cb\u8d8a\u65e9\u3002\u4e34\u8fd1\u8fd9\u4e9b\u8f66\u7ad9\u7684\u4e58\u5ba2\u5982\u679c\u5e0c\u671b\u4eab\u53d7\u4f18\u60e0\uff0c\u6700\u597d\u4e0d\u8981\u8e29\u7740\u70b9\u513f\u51fa\u95e8\u3002\u201d
p417
aV\u636e\u5317\u4eac\u5730\u94c1\u521d\u6b65\u7edf\u8ba1\uff0c\u6628\u65e57\u65f6\u524d\uff0c\u4ece\u660c\u5e73\u7ebf5\u5ea7\u8f66\u7ad9\u8fdb\u7ad9\u7684\u4e58\u5ba2\u67099515\u4eba\uff0c\u4ece\u516b\u901a\u7ebf11\u5ea7\u8f66\u7ad9\u8fdb\u7ad9\u7684\u4e58\u5ba2\u670924080\u4eba\u3002\u8fd933595\u4eba\u6210\u4e3a\u672c\u5e02\u9996\u6279\u4eab\u53d77\u6298\u4f4e\u5cf0\u7968\u4ef7\u4f18\u60e0\u7684\u4e58\u5ba2\u3002\u5176\u4e2d\u53cc\u6865\u7ad9\u8868\u73b0\u5f97\u6700\u4e3a\u660e\u663e\uff0c\u6628\u65e57\u65f6\u524d\u8fdb\u7ad9\u5ba2\u6d41\u6bd4\u4e0a\u5468\u4e00\u540c\u65f6\u6bb5\u589e\u957f\u7ea65%\u3002
p418
aV7\u65f6\u521a\u8fc7\uff0c\u53cc\u6865\u7ad9\u5ba2\u6d41\u5f00\u59cb\u731b\u589e\u3002\u201c7\u65f6\u524d\u8fdb\u7ad9\uff0c\u4e00\u8d9f\u8f66\u5c31\u80fd\u8d70\uff0c\u6bcf\u4e2a\u95e8\u6392\u4e09\u56db\u4e2a\u4eba\u30027\u65f630\u5206\uff0c\u4e0d\u7b49\u4e09\u56db\u8d9f\u8f66\u90fd\u6324\u4e0d\u8fdb\u53bb\u3002\u201d\u4e00\u4f4d\u6587\u660e\u5f15\u5bfc\u5458\u8bf4\uff0c\u201c\u6709\u65f6\u5019\u8d77\u65e9\u70b9\u513f\u4e0d\u662f\u4e3a\u4e86\u6253\u6298\u7684\u51e0\u5757\u94b1\uff0c\u662f\u4e3a\u4e86\u5c11\u62e5\u6324\u3002\u201d
p419
aV\u5e02\u4ea4\u901a\u59d4\u8868\u793a\uff0c\u6b64\u6b21\u5730\u94c1\u7968\u4ef7\u6253\u6298\u653f\u7b56\u662f\u4e3a\u4e86\u7f13\u89e3\u65e9\u9ad8\u5cf0\u671f\u95f4\u7684\u5de8\u5927\u5ba2\u6d41\u91cf\u3002\u76ee\u524d\uff0c\u5355\u65e5\u7968\u3001\u4e09\u65e5\u7968\u4ee5\u53ca\u6708\u7968\u7b49\u4f18\u60e0\u7968\u5236\u90fd\u5728\u7814\u7a76\u4e2d\uff0c\u4ee5\u5438\u5f15\u66f4\u591a\u4eba\u7eff\u8272\u51fa\u884c\u3002
p420
aV\u5317\u4eac\u5730\u94c1\u65b0\u95fb\u53d1\u8a00\u4eba\u8d3e\u9e4f\u8868\u793a\uff0c\u5730\u94c1\u5c06\u5b9a\u671f\u5bf9\u5b9e\u65bd\u6548\u679c\u8fdb\u884c\u8bc4\u4f30\uff0c\u6839\u636e\u8bc4\u4f30\u7ed3\u679c\u786e\u5b9a\u8bd5\u884c\u671f\u540e\u662f\u5426\u7ee7\u7eed\u5b9e\u65bd\u3002
p421
aV1.5\u4e07\u53f0\u5730\u94c1\u8bbe\u5907\u201c\u8111\u6269\u5bb9\u201d
p422
aV\u4f4e\u5cf0\u7968\u4ef7\u63a8\u51fa\uff0c\u76f8\u5f53\u4e8e\u7ed9\u5730\u94c1\u81ea\u52a8\u552e\u68c0\u7968\uff08AFC\uff09\u7cfb\u7edf\u52a0\u4e86\u4f5c\u4e1a\uff0c\u8fd0\u7b97\u96be\u5ea6\u51e0\u4f55\u500d\u5347\u7ea7\u3002\u5317\u4eac\u5e02\u8f68\u9053\u4ea4\u901a\u6307\u6325\u4e2d\u5fc3\u68c0\u6d4b\u4e2d\u5fc3\u4e3b\u4efb\u51af\u6615\u6656\u529e\u516c\u5ba4\u7684\u9ed1\u677f\u4e0a\u6ee1\u6ee1\u90fd\u662f\u5404\u79cd\u7b97\u5f0f\u3002\u4ed6\u548c\u5343\u4f59\u540d\u5730\u94c1\u4eba\u5728\u5348\u591c\u5730\u94c1\u6536\u8f66\u540e\u4e3aAFC\u7cfb\u7edf\u505a\u4e86\u201c\u8111\u6269\u5bb9\u201d\u624b\u672f\u3002
p423
aV\u5317\u4eac\u8f68\u9053\u4ea4\u901a\u8fd0\u8425\u7ebf\u8def\u670918\u6761\uff0c\u968f\u7740\u660c\u5e73\u7ebf\u4e8c\u671f\u548c14\u53f7\u7ebf\u4e2d\u6bb5\u52a0\u5165\uff0c\u6295\u5165\u4f7f\u7528\u7684\u8f66\u7ad9\u589e\u52a0\u5230334\u5ea7\u3002\u8fd9\u4e9b\u8f66\u7ad9\u7d2f\u8ba1\u6709\u7ea61.5\u4e07\u53f0\uff08\u5957\uff09\u5404\u7c7b\u8bbe\u5907\u9700\u6309\u7167\u65b0\u7968\u5236\u7968\u4ef7\u7cfb\u7edf\u8fd0\u8f6c\u3002
p424
aV\u6bcf\u53f0\u8bbe\u5907\u90fd\u9700\u8981\u8fdb\u884c\u201c\u8111\u6269\u5bb9\u201d\u3002\u51af\u6615\u6656\u4ecb\u7ecd\u8bf4\uff0c\u201c16\u4e2a\u8f66\u7ad9\u8bd5\u70b9\u5b9e\u65bd\u4f4e\u5cf0\u7968\u4ef7\uff0c\u5168\u7f51\u6bcf\u4e00\u5ea7\u95f8\u673a\u90fd\u8981\u8bc6\u522b\u51fa\u8fd9\u4e9b\u7279\u5b9a\u4e8b\u4ef6\u3001\u7279\u5b9a\u70b9\u7684\u8fdb\u7ad9\u4fe1\u606f\uff0c\u7136\u540e\u7ed9\u4e88\u4f18\u60e0\u3002\u201d
p425
aV\u7531\u4e8e\u4e24\u6761\u5730\u94c1\u65b0\u7ebf\u5f00\u901a\uff0c\u7cfb\u7edf\u8fd8\u9700\u53e6\u5916\u4e00\u9879\u5927\u8c03\u6574\u3002\u5177\u4f53\u8bf4\uff0c\u6bcf\u5f00\u901a1\u5ea7\u8f66\u7ad9\uff0c\u5168\u7f51\u6240\u6709\u8f66\u7ad9\u7684\u552e\u7968\u7cfb\u7edf\u90fd\u9700\u8981\u91cd\u65b0\u8ba1\u7b97\u7968\u4ef7\u3002\u201c\u4e0d\u4ec5\u662f\u52a0\u4e00\u4e2a\u6570\uff0c\u6709\u65f6\u5019\u5f00\u4e00\u5ea7\u8f66\u7ad9\uff0c\u4e00\u4e2a\u8282\u70b9\u5c31\u6253\u901a\u4e86\uff0c\u4e58\u5ba2\u4e0d\u7528\u7ed5\u8def\u4e86\uff0c\u51fa\u884c\u66f4\u4f18\u5316\uff0c\u7968\u4ef7\u53ef\u80fd\u5c31\u4f1a\u964d\u4f4e\u3002\u6bcf\u4e00\u7ad9\u7684\u7cfb\u7edf\u8c03\u6574\u540e\uff0c\u5de5\u4f5c\u4eba\u5458\u9700\u8981\u9010\u4e2a\u6838\u5bf9\u4e09\u767e\u591a\u5ea7\u8f66\u7ad9\u7684\u7968\u4ef7\u662f\u5426\u51c6\u786e\u3002\u201d
p426
aV\u51af\u6615\u6656\u4ecb\u7ecd\uff0c\u6bcf\u53f0\u8bbe\u5907\u8c03\u6574\u5b8c\u6210\u540e\u9700\u8981\u8fdb\u884c\u538b\u529b\u6d4b\u8bd5\uff0c\u90fd\u662f\u4e07\u6b21\u8d77\u6b65\u3002\u57fa\u672c\u89c4\u5b9a\u662f\u6d4b\u8bd51\u4e07\u6b21\uff0c\u800c\u4ed6\u4eec\u4f1a\u6d4b\u8bd51.2\u4e07\u6b21\u3002
p427
aV\u51af\u6615\u6656\u8bf4\uff0c\u201c\u53bb\u5e74\u7b97\u662f\u7ed9\u7cfb\u7edf\u53d8\u4e86\u4e2a\u601d\u8def\uff0c\u4ece\u5355\u4e00\u7968\u4ef7\u53d8\u6210\u6309\u91cc\u7a0b\u8ba1\u4ef7\uff0c\u540c\u65f6\u589e\u52a0\u4e86\u7d2f\u8ba1\u6253\u6298\u7684\u7b97\u5f0f\u3002\u96be\u5ea6\u4e0d\u5927\uff0c\u4f46\u98ce\u9669\u5927\uff0c\u5c31\u6015\u7ed9\u4e58\u5ba2\u7b97\u9519\u8d26\u3002\u201d\u5317\u4eac\u5730\u94c1\u5355\u65e5\u5ba2\u6d41\u52a8\u8f84\u4e00\u5343\u591a\u4e07\u4eba\u6b21\uff0c\u4e00\u5e74\u7684\u5ba2\u6d41\u6570\u4ee5\u4ebf\u8ba1\u3002\u4e0d\u8fc7\uff0c\u4e00\u5e74\u6765\uff0c\u56e0\u8bbe\u5907\u6545\u969c\u9020\u6210\u6263\u9519\u7968\u6b3e\u7684\u4ea4\u6613\u6570\u91cf\u4e0d\u52301000\u7b14\u3002
p428
aV\u672a\u6765\u4e24\u5e74\uff0c\u5730\u94c1\u7684\u81ea\u52a8\u552e\u68c0\u7968\u7cfb\u7edf\u8fd8\u8981\u5347\u7ea7\u3002\u201c\u4e00\u5e74\u6bd4\u4e00\u5e74\u96be\u5ea6\u7cfb\u6570\u5927\u3002\u4e00\u65b9\u9762\u662f\u4e3a\u4e86\u5e94\u5bf9\u4e00\u65e5\u7968\u3001\u4e09\u65e5\u7968\u7b49\u66f4\u591a\u7c7b\u578b\u7684\u7968\u79cd\u7684\u8ba1\u7b97\uff0c\u53e6\u4e00\u65b9\u9762\u5317\u4eac\u5730\u94c1\u95f8\u673a\u4f7f\u7528\u9891\u6b21\u8fc7\u9ad8\uff0c\u8bbe\u5907\u635f\u574f\u6298\u65e7\u901f\u5ea6\u4e5f\u76f8\u5e94\u52a0\u5feb\u3002\u201d
p429
aV\u76ee\u524d\uff0c\u5317\u4eac\u5730\u94c1AFC\u7cfb\u7edf\u5df2\u7ecf\u6210\u4e3a\u5168\u56fd\u5730\u94c1\u884c\u4e1a\u5185\u6700\u5927\u89c4\u6a21\u7684\u4e00\u5957\u7cfb\u7edf\u3002
p430
aV\u5bf9\u4e8e\u5f88\u591a\u4eba\u803f\u803f\u4e8e\u6000\u6b64\u524d\u76849.9\u6298\u6d4b\u8bd5\uff0c\u51af\u6615\u6656\u89e3\u91ca\u8bf4\uff0c\u201c\u4e3b\u8981\u662f\u4e3a\u4e86\u52a0\u5927\u6d4b\u9a8c\u96be\u5ea6\u7cfb\u6570\uff0c\u4ee5\u5e94\u5bf9\u4f4e\u5cf0\u7968\u4ef7\u5b9e\u65bd\u540e\u7684\u538b\u529b\u3002\u201d\u8fd9\u5c31\u597d\u6bd4\u4e00\u6a21\u4e8c\u6a21\u5f80\u5f80\u6bd4\u9ad8\u8003\u96be\uff0c9.9\u6298\u7684\u8fd0\u7b97\u6bd4\u6574\u6570\u500d\u7684\u6298\u6263\u8981\u590d\u6742\uff0c\u6d89\u53ca\u66f4\u591a\u8fdb\u4f4d\uff0c\u7a0d\u6709\u4e0d\u614e\u5c31\u4f1a\u51fa\u6545\u969c\u3002\u201c\u540c\u65f6\uff0c\u4e5f\u662f\u5c06\u98ce\u9669\u964d\u4f4e\uff0c\u6bd5\u7adf\u4e58\u5ba2\u5237\u5361\u4e58\u8f66\uff0c\u4e0d\u662f\u5730\u94c1\u5458\u5de5\u62ff\u6d4b\u8bd5\u5361\u5b9e\u9a8c\uff0c\u90fd\u662f\u2018\u771f\u91d1\u767d\u94f6\u2019\u7684\u6d4b\u8bd5\u3002\u4e0d\u8fc7\u597d\u5728\uff0c\u6d4b\u8bd5\u7ed3\u679c\u5f88\u987a\u5229\u3002\u201d\uff08\u8bb0\u8005\u5218\u5195\uff09
p431
asg19
V\u5317\u4eac\u5730\u94c1\u4f4e\u5cf0\u7968\u5438\u5f153\u4e07\u4f59\u4eba\u65e9\u8fdb\u7ad9
p432
sa(dp433
g2
S'http://economy.gmw.cn/2017-12/22/content_27199780.htm'
p434
sg4
V2017-12-22 17:15
p435
sg6
(lp436
V\u4eba\u6c11\u7f51\u5317\u4eac12\u670822\u65e5\u7535\u3000\u636e\u5317\u4eac\u5730\u94c1\u5b98\u65b9\u7f51\u7ad9\u6d88\u606f\uff0c2017\u5e7412\u670823\u65e5\u8d77\uff0c\u5317\u4eac\u8f68\u9053\u4ea4\u901a\u5168\u8def\u7f51\u5b9e\u73b0\u7ebf\u4e0a\u8d2d\u7968\u3001\u8f66\u7ad9\u53d6\u7968\u3002\u5373\u4e58\u5ba2\u901a\u8fc7\u5317\u4eac\u8f68\u9053\u4ea4\u901a\u5355\u7a0b\u7968\u4e92\u8054\u7f51\u7968\u52a1\u670d\u52a1\u5e73\u53f0App\u8fdb\u884c\u7ebf\u4e0a\u8d2d\u7968\uff0c\u53ef\u5728\u5168\u8def\u7f51\u5404\u8f66\u7ad9FAM\uff08\u7f51\u7edc\u53d6\u7968\u673a\uff09\u4e0a\u8fdb\u884c\u53d6\u7968\u3001\u8fdb\u7ad9\u4e58\u8f66\u3002
p437
aV\u5317\u4eac\u5730\u94c1\u516c\u53f8\u76f8\u5173\u8d1f\u8d23\u4eba\u4ecb\u7ecd\uff0c\u4e3a\u8fdb\u4e00\u6b65\u63d0\u9ad8\u8f66\u7ad9\u8fd0\u8425\u53ca\u670d\u52a1\u6c34\u5e73\uff0c\u6ee1\u8db3\u4e58\u5ba2\u5bf9\u8f68\u9053\u4ea4\u901a\u5e94\u7528\u79fb\u52a8\u652f\u4ed8\u6280\u672f\u7684\u8feb\u5207\u9700\u6c42\uff0c\u5411\u4e58\u5ba2\u63d0\u4f9b\u66f4\u4e3a\u4fbf\u5229\u7684\u51fa\u884c\u670d\u52a1\uff0c\u8be5\u5e73\u53f0App\u81ea2017\u5e748\u670820\u65e5\u8d77\u5728\u8def\u7f51\u90e8\u5206\u7ebf\u8def\u53ca\u8f66\u7ad9\u5148\u540e\u8bd5\u70b9\u7ebf\u4e0a\u8d2d\u7968\u3001\u8f66\u7ad9\u53d6\u7968\uff0c\u53ca\u5237\u4e8c\u7ef4\u7801\u8fdb\u51fa\u7ad9\u529f\u80fd\uff0c\u5404\u9879\u529f\u80fd\u8fd0\u884c\u7a33\u5b9a\u3002
p438
aV\u636e\u6089\uff0c\u76ee\u524d\u5317\u4eac\u5730\u94c1\u673a\u573a\u7ebf4\u5ea7\u8f66\u7ad9FAM\u673a\u65e5\u5747\u53d6\u7968\u91cf\u4e3a529\u5f20\uff0c\u5360\u673a\u573a\u7ebf\u5355\u7a0b\u7968\u4e58\u5ba2\u76842.84%\uff1b\u65e5\u5747\u5237\u4e8c\u7ef4\u7801\u8fdb\u7ad9\u4e58\u5ba2\u8fbe866\u4eba\uff0c\u5360\u65e5\u5747\u8fdb\u7ad9\u91cf\u76842.46%\u3002\uff1b20\u5ea7\u91cd\u70b9\u8f66\u7ad9\u65e5\u5747FAM\u673a\u53d6\u7968\u91cf\u4e3a7352\u5f20\uff0c\u536020\u5ea7\u91cd\u70b9\u8f66\u7ad9\u5355\u7a0b\u7968\u4e58\u5ba2\u76843.21%\u3002
p439
aV\u201c\u6b64\u6b21\u5168\u8def\u7f51\u5b9e\u73b0\u7ebf\u4e0a\u8d2d\u7968\u3001\u8f66\u7ad9\u53d6\u7968\u5171\u6295\u5165708\u53f0FAM\u673a\uff0c\u6bcf\u5ea7\u8f66\u7ad9\u5e73\u5747\u81f3\u5c11\u5b89\u88c5\u4e24\u53f0FAM\u673a\u3002\u4e58\u5ba2\u901a\u8fc7\u5e73\u53f0App\u8fdb\u884c\u7ebf\u4e0a\u8d2d\u7968\uff0c\u5e76\u5728\u8f66\u7ad9\u7684\u81ea\u52a9\u552e\u7968\u673a\u9644\u8fd1\u627e\u5230FAM\u673a\uff0c\u8fdb\u884c\u626b\u7801\u53d6\u7968\uff0c\u7f29\u77ed\u6392\u961f\u8d2d\u7968\u65f6\u95f4\uff0c\u51cf\u5c11\u4eba\u5458\u805a\u96c6\u60c5\u51b5\uff0c\u6709\u6548\u6539\u5584\u4e58\u5ba2\u51fa\u884c\u4f53\u9a8c\u3002\u201d\u8be5\u8d1f\u8d23\u4eba\u79f0\u3002
p440
aV\u8be5\u8d1f\u8d23\u4eba\u6307\u51fa\uff0c\u4e3a\u8ba9\u66f4\u5e7f\u5927\u7684\u4e58\u5ba2\u4f53\u4f1a\u5230\u79fb\u52a8\u652f\u4ed8\u5e26\u6765\u7684\u4fbf\u6377\u51fa\u884c\uff0c\u63d0\u5347\u4e58\u5ba2\u7684\u83b7\u5f97\u611f\u548c\u5e78\u798f\u611f\uff0c2017\u5e7412\u670823\u65e5\u8d77\uff0c\u8be5\u5e73\u53f0App\u8fdb\u4e00\u6b65\u6269\u5927\u5728\u8def\u7f51\u4e0a\u7684\u5e94\u7528\u8303\u56f4\uff0c\u5168\u8def\u7f5119\u6761\u7ebf\u6240\u6709\u8f66\u7ad9\u5747\u5b9e\u73b0\u7ebf\u4e0a\u8d2d\u7968\u3001\u8f66\u7ad9\u53d6\u7968\uff1b\u4e0b\u4e00\u6b65\uff0c\u8ba1\u5212\u4e8e2018\u5e74\u4e00\u5b63\u5ea6\u5728\u5168\u8def\u7f51\u8303\u56f4\u5b9e\u73b0\u5237\u4e8c\u7ef4\u7801\u8fdb\u51fa\u7ad9\u3002\uff08\u6731\u6c5f\uff09
p441
asg19
V\u5317\u4eac\u5730\u94c1\u8f68\u9053\u4ea4\u901a\u5168\u8def\u7f5123\u65e5\u8d77\u5b9e\u73b0\u7ebf\u4e0a\u8d2d\u7968\u3001\u8f66\u7ad9\u53d6\u7968
p442
sa(dp443
g2
S'http://share.gmw.cn/local/roll2/2017-12/08/content_120197638.htm'
p444
sg4
V2017-12-08 09:57
p445
sg6
(lp446
V\u672c\u62a5\u8baf\uff08\u8bb0\u8005\u5f20\u9e23\uff0912\u67087\u65e5\uff0c\u8bb0\u8005\u4ece\u5408\u80a5\u8f68\u9053\u4ea4\u901a\u516c\u53f8\u83b7\u6089\uff0c\u4e3a\u65b9\u4fbf\u4e58\u5ba2\u4e58\u5750\u8f68\u9053\u4ea4\u901a\uff0c\u5408\u80a5\u8f68\u9053\u4ea4\u901a\u63a8\u51fa\u805a\u5408\u4e8c\u7ef4\u7801\u7ebf\u4e0a\u652f\u4ed8\u3002\u4ece12\u67085\u65e5\u8d77\uff0c\u5728\u5408\u80a5\u8f68\u9053\u4ea4\u901a1\u53f7\u7ebf\u5404\u7ad9\u70b9\u5ba2\u670d\u4e2d\u5fc3\u3001\u4e34\u65f6\u552e\u7968\u5c97\u4ead\u5185\u8d2d\u4e70\u8ba1\u6b21\u7968\u3001\u50a8\u503c\u7968\u3001\u7eaa\u5ff5\u7968\uff0c\u6216\u8005\u4e3a\u50a8\u503c\u7968\u5145\u503c\uff0c\u5747\u53ef\u901a\u8fc7\u626b\u7801\u652f\u4ed8\u3002
p447
aV12\u67086\u65e5\uff0c\u8f68\u9053\u4ea4\u901a2\u53f7\u7ebf\u767e\u4e07\u5e02\u6c11\u5927\u578b\u8bd5\u4e58\u4f53\u9a8c\u6d3b\u52a8\u542f\u52a8\u5f53\u5929\uff0c\u805a\u5408\u4e8c\u7ef4\u7801\u652f\u4ed8\u540c\u6b65\u4e0a\u7ebf\u3002\u805a\u5408\u4e8c\u7ef4\u7801\u805a\u5408\u5fae\u4fe1\u3001\u652f\u4ed8\u5b9d\u7b49\u652f\u4ed8\u901a\u9053\uff0c\u5b9e\u73b0\u4e00\u7801\u6536\u6b3e\u3002\u76ee\u524d\uff0c\u8f68\u9053\u4ea4\u901a1\u30012\u53f7\u7ebf\u5404\u7ad9\u70b9\u5ba2\u670d\u4e2d\u5fc3\u3001\u4e34\u65f6\u552e\u7968\u5c97\u4ead\u5171\u8ba167\u4e2a\u670d\u52a1\u70b9\u8bbe\u7f6e\u4e86\u805a\u5408\u4e8c\u7ef4\u7801\u626b\u7801\u8bbe\u5907\uff0c\u51e1\u5728\u4e0a\u8ff067\u4e2a\u670d\u52a1\u70b9\u5185\u529e\u7406\u4e1a\u52a1\u7684\u4e58\u5ba2\uff0c\u4e0d\u9700\u8981\u4f7f\u7528\u73b0\u91d1\uff0c\u626b\u4e00\u626b\u805a\u5408\u4e8c\u7ef4\u7801\u5373\u53ef\u987a\u5229\u652f\u4ed8\u3002
p448
aV\u6b64\u5916\uff0c\u5408\u80a5\u8f68\u9053\u4ea4\u901a\u5df2\u542f\u52a8\u5728\u81ea\u52a9\u8d2d\u7968\u673a\u4e0a\u901a\u8fc7\u626b\u7801\u652f\u4ed8\u8d2d\u4e70\u5355\u7a0b\u7968\u76f8\u5173\u5de5\u4f5c\uff0c\u5f85\u81ea\u52a9\u8d2d\u7968\u673a\u4e8c\u7ef4\u7801\u652f\u4ed8\u4e0a\u7ebf\u540e\uff0c\u4e58\u5ba2\u4e58\u5750\u8f68\u9053\u4ea4\u901a\u4e0d\u9700\u8981\u643a\u5e26\u73b0\u91d1\uff0c\u5e26\u4e0a\u4e00\u90e8\u624b\u673a\u5373\u53ef\u3002
p449
asg19
V\u8d2d\u4e70\u5408\u80a5\u5730\u94c1\u7968\u53ef\u626b\u7801\u652f\u4ed8
p450
sa(dp451
g2
S'http://life.gmw.cn/2017-08/18/content_25706817.htm'
p452
sg4
V2017-08-18 16:04
p453
sg6
(lp454
V8\u670818\u65e5\uff0c\u636e\u5e02\u4ea4\u901a\u59d4\u6d88\u606f\uff0c\u5317\u4eac\u8f68\u9053\u4ea4\u901a\u5355\u7a0b\u7968\u4e92\u8054\u7f51\u7968\u52a1\u7684\u5b98\u65b9\u670d\u52a1\u5e73\u53f0\u2014\u2014\u6613\u901a\u884cAPP\u6b63\u5f0f\u4e0a\u7ebf\uff0c\u7387\u5148\u5728\u673a\u573a\u7ebf\u8bd5\u70b9\u8fd0\u884c\u3002\u4ece8\u670820\u65e5\u8d77\uff0c\u4e58\u5ba2\u4e0b\u8f7d\u6613\u901a\u884cAPP\u5e76\u8fdb\u884c\u6ce8\u518c\uff0c\u5c31\u53ef\u4ee5\u5728\u7ebf\u8d2d\u4e70\u673a\u573a\u7ebf\u5355\u7a0b\u8f66\u7968\uff0c\u5230\u8fbe\u9009\u5b9a\u51fa\u53d1\u8f66\u7ad9\u540e\uff0c\u901a\u8fc7\u5728\u7f51\u7edc\u53d6\u7968\u673a\u626b\u63cf\u624b\u673a\u4e0a\u7684\u4e8c\u7ef4\u7801\uff0c\u5b8c\u6210\u53d6\u7968\u3001\u8fdb\u7ad9\u4e58\u8f66\u3002\u52309\u670820\u65e5\uff0c\u4e58\u5ba2\u53ea\u8981\u518d\u5f00\u901aAPP\u4e0a\u7684\u4e8c\u7ef4\u7801\u5237\u95f8\u529f\u80fd\uff0c\u5c31\u80fd\u591f\u76f4\u63a5\u5237\u4e8c\u7ef4\u7801\u8fdb\u51fa\u7ad9\uff0c\u4e58\u5ba2\u5c06\u5f7b\u5e95\u544a\u522b\u73b0\u573a\u4e70\u7968\u6392\u961f\uff0c\u5750\u5730\u94c1\u4f1a\u66f4\u52a0\u65b9\u4fbf\u5feb\u6377\u3002
p455
aV\u540c\u65f6\uff0c9\u67081\u65e5\u8d77\u8fd8\u670920\u4e2a\u5927\u5ba2\u6d41\u8f66\u7ad9\u4e5f\u80fd\u5b9e\u73b0\u7ebf\u4e0a\u8d2d\u7968\u3001\u7ebf\u4e0b\u53d6\u7968\uff0c\u5206\u522b\u662f\uff1a\u4e94\u68f5\u677e\u3001\u897f\u5355\u3001\u5929\u5b89\u95e8\u4e1c\u3001\u5929\u5b89\u95e8\u897f\u3001\u738b\u5e9c\u4e95\u3001\u5927\u671b\u8def\uff0c\u524d\u95e8\u3001\u897f\u76f4\u95e8\u3001\u79ef\u6c34\u6f6d\u3001\u4e1c\u76f4\u95e8\u3001\u5d07\u6587\u95e8\u3001\u5317\u4eac\u7ad9\uff0c\u52a8\u7269\u56ed\u3001\u5317\u4eac\u5357\u7ad9\uff0c\u5357\u9523\u9f13\u5df7\uff0c\u5965\u4f53\u4e2d\u5fc3\u3001\u5965\u6797\u5339\u514b\u516c\u56ed\uff0c\u5317\u4eac\u897f\u7ad9\u3001\u56fd\u8d38\u3001\u5341\u91cc\u6cb3\u3002\u5176\u4e2d\u65e2\u6709\u4e0e\u94c1\u8def\u8fde\u901a\u53e3\u5cb8\u7ad9\uff0c\u4e5f\u6709\u70ed\u95e8\u65c5\u6e38\u666f\u70b9\u7ad9\uff0c\u4ee5\u53ca\u91cd\u8981\u67a2\u7ebd\u8f66\u7ad9\u3002\u9884\u8ba1\u52302018\u5e74\u4e00\u5b63\u5ea6\uff0c\u5317\u4eac\u5730\u94c1\u5168\u7f51\u6240\u6709\u7ebf\u8def\u548c\u8f66\u7ad9\u90fd\u80fd\u5b9e\u73b0\u624b\u673a\u5237\u4e8c\u7ef4\u7801\u8fdb\u51fa\u7ad9\u3002\uff08\u5317\u9752\u62a5\u8bb0\u8005\u5218\u73dc\u6444\u5f71\u9ec4\u4eae\uff09
p456
asg19
V\u5317\u4eac\u5730\u94c1\u5c06\u5168\u7ebf\u5b9e\u73b0\u7ebf\u4e0a\u8d2d\u7968\u5237\u4e8c\u7ef4\u7801\u4e58\u8f66
p457
sa.